
SDCARD_LOGGER.elf:     file format elf32-littlearm

Sections:
Idx Name          Size      VMA       LMA       File off  Algn
  0 .isr_vector   00000198  08000000  08000000  00001000  2**0
                  CONTENTS, ALLOC, LOAD, READONLY, DATA
  1 .text         00005a90  080001a0  080001a0  000011a0  2**4
                  CONTENTS, ALLOC, LOAD, READONLY, CODE
  2 .rodata       0000056c  08005c30  08005c30  00006c30  2**1
                  CONTENTS, ALLOC, LOAD, READONLY, DATA
  3 .ARM.extab    00000000  0800619c  0800619c  00008074  2**0
                  CONTENTS
  4 .ARM          00000008  0800619c  0800619c  0000719c  2**2
                  CONTENTS, ALLOC, LOAD, READONLY, DATA
  5 .preinit_array 00000000  080061a4  080061a4  00008074  2**0
                  CONTENTS, ALLOC, LOAD, DATA
  6 .init_array   00000004  080061a4  080061a4  000071a4  2**2
                  CONTENTS, ALLOC, LOAD, READONLY, DATA
  7 .fini_array   00000004  080061a8  080061a8  000071a8  2**2
                  CONTENTS, ALLOC, LOAD, READONLY, DATA
  8 .data         00000074  20000000  080061ac  00008000  2**2
                  CONTENTS, ALLOC, LOAD, DATA
  9 .bss          00002694  20000074  08006220  00008074  2**2
                  ALLOC
 10 ._user_heap_stack 00000600  20002708  08006220  00008708  2**0
                  ALLOC
 11 .ARM.attributes 00000030  00000000  00000000  00008074  2**0
                  CONTENTS, READONLY
 12 .comment      00000043  00000000  00000000  000080a4  2**0
                  CONTENTS, READONLY
 13 .debug_frame  000005e4  00000000  00000000  000080e8  2**2
                  CONTENTS, READONLY, DEBUGGING, OCTETS

Disassembly of section .text:

080001a0 <__do_global_dtors_aux>:
 80001a0:	b510      	push	{r4, lr}
 80001a2:	4c05      	ldr	r4, [pc, #20]	@ (80001b8 <__do_global_dtors_aux+0x18>)
 80001a4:	7823      	ldrb	r3, [r4, #0]
 80001a6:	b933      	cbnz	r3, 80001b6 <__do_global_dtors_aux+0x16>
 80001a8:	4b04      	ldr	r3, [pc, #16]	@ (80001bc <__do_global_dtors_aux+0x1c>)
 80001aa:	b113      	cbz	r3, 80001b2 <__do_global_dtors_aux+0x12>
 80001ac:	4804      	ldr	r0, [pc, #16]	@ (80001c0 <__do_global_dtors_aux+0x20>)
 80001ae:	f3af 8000 	nop.w
 80001b2:	2301      	movs	r3, #1
 80001b4:	7023      	strb	r3, [r4, #0]
 80001b6:	bd10      	pop	{r4, pc}
 80001b8:	20000074 	.word	0x20000074
 80001bc:	00000000 	.word	0x00000000
 80001c0:	08005c18 	.word	0x08005c18

080001c4 <frame_dummy>:
 80001c4:	b508      	push	{r3, lr}
 80001c6:	4b03      	ldr	r3, [pc, #12]	@ (80001d4 <frame_dummy+0x10>)
 80001c8:	b11b      	cbz	r3, 80001d2 <frame_dummy+0xe>
 80001ca:	4903      	ldr	r1, [pc, #12]	@ (80001d8 <frame_dummy+0x14>)
 80001cc:	4803      	ldr	r0, [pc, #12]	@ (80001dc <frame_dummy+0x18>)
 80001ce:	f3af 8000 	nop.w
 80001d2:	bd08      	pop	{r3, pc}
 80001d4:	00000000 	.word	0x00000000
 80001d8:	20000078 	.word	0x20000078
 80001dc:	08005c18 	.word	0x08005c18

080001e0 <strlen>:
 80001e0:	4603      	mov	r3, r0
 80001e2:	f813 2b01 	ldrb.w	r2, [r3], #1
 80001e6:	2a00      	cmp	r2, #0
 80001e8:	d1fb      	bne.n	80001e2 <strlen+0x2>
 80001ea:	1a18      	subs	r0, r3, r0
 80001ec:	3801      	subs	r0, #1
 80001ee:	4770      	bx	lr

080001f0 <memchr>:
 80001f0:	f001 01ff 	and.w	r1, r1, #255	@ 0xff
 80001f4:	2a10      	cmp	r2, #16
 80001f6:	db2b      	blt.n	8000250 <memchr+0x60>
 80001f8:	f010 0f07 	tst.w	r0, #7
 80001fc:	d008      	beq.n	8000210 <memchr+0x20>
 80001fe:	f810 3b01 	ldrb.w	r3, [r0], #1
 8000202:	3a01      	subs	r2, #1
 8000204:	428b      	cmp	r3, r1
 8000206:	d02d      	beq.n	8000264 <memchr+0x74>
 8000208:	f010 0f07 	tst.w	r0, #7
 800020c:	b342      	cbz	r2, 8000260 <memchr+0x70>
 800020e:	d1f6      	bne.n	80001fe <memchr+0xe>
 8000210:	b4f0      	push	{r4, r5, r6, r7}
 8000212:	ea41 2101 	orr.w	r1, r1, r1, lsl #8
 8000216:	ea41 4101 	orr.w	r1, r1, r1, lsl #16
 800021a:	f022 0407 	bic.w	r4, r2, #7
 800021e:	f07f 0700 	mvns.w	r7, #0
 8000222:	2300      	movs	r3, #0
 8000224:	e8f0 5602 	ldrd	r5, r6, [r0], #8
 8000228:	3c08      	subs	r4, #8
 800022a:	ea85 0501 	eor.w	r5, r5, r1
 800022e:	ea86 0601 	eor.w	r6, r6, r1
 8000232:	fa85 f547 	uadd8	r5, r5, r7
 8000236:	faa3 f587 	sel	r5, r3, r7
 800023a:	fa86 f647 	uadd8	r6, r6, r7
 800023e:	faa5 f687 	sel	r6, r5, r7
 8000242:	b98e      	cbnz	r6, 8000268 <memchr+0x78>
 8000244:	d1ee      	bne.n	8000224 <memchr+0x34>
 8000246:	bcf0      	pop	{r4, r5, r6, r7}
 8000248:	f001 01ff 	and.w	r1, r1, #255	@ 0xff
 800024c:	f002 0207 	and.w	r2, r2, #7
 8000250:	b132      	cbz	r2, 8000260 <memchr+0x70>
 8000252:	f810 3b01 	ldrb.w	r3, [r0], #1
 8000256:	3a01      	subs	r2, #1
 8000258:	ea83 0301 	eor.w	r3, r3, r1
 800025c:	b113      	cbz	r3, 8000264 <memchr+0x74>
 800025e:	d1f8      	bne.n	8000252 <memchr+0x62>
 8000260:	2000      	movs	r0, #0
 8000262:	4770      	bx	lr
 8000264:	3801      	subs	r0, #1
 8000266:	4770      	bx	lr
 8000268:	2d00      	cmp	r5, #0
 800026a:	bf06      	itte	eq
 800026c:	4635      	moveq	r5, r6
 800026e:	3803      	subeq	r0, #3
 8000270:	3807      	subne	r0, #7
 8000272:	f015 0f01 	tst.w	r5, #1
 8000276:	d107      	bne.n	8000288 <memchr+0x98>
 8000278:	3001      	adds	r0, #1
 800027a:	f415 7f80 	tst.w	r5, #256	@ 0x100
 800027e:	bf02      	ittt	eq
 8000280:	3001      	addeq	r0, #1
 8000282:	f415 3fc0 	tsteq.w	r5, #98304	@ 0x18000
 8000286:	3001      	addeq	r0, #1
 8000288:	bcf0      	pop	{r4, r5, r6, r7}
 800028a:	3801      	subs	r0, #1
 800028c:	4770      	bx	lr
 800028e:	bf00      	nop

08000290 <__aeabi_uldivmod>:
 8000290:	b953      	cbnz	r3, 80002a8 <__aeabi_uldivmod+0x18>
 8000292:	b94a      	cbnz	r2, 80002a8 <__aeabi_uldivmod+0x18>
 8000294:	2900      	cmp	r1, #0
 8000296:	bf08      	it	eq
 8000298:	2800      	cmpeq	r0, #0
 800029a:	bf1c      	itt	ne
 800029c:	f04f 31ff 	movne.w	r1, #4294967295
 80002a0:	f04f 30ff 	movne.w	r0, #4294967295
 80002a4:	f000 b96a 	b.w	800057c <__aeabi_idiv0>
 80002a8:	f1ad 0c08 	sub.w	ip, sp, #8
 80002ac:	e96d ce04 	strd	ip, lr, [sp, #-16]!
 80002b0:	f000 f806 	bl	80002c0 <__udivmoddi4>
 80002b4:	f8dd e004 	ldr.w	lr, [sp, #4]
 80002b8:	e9dd 2302 	ldrd	r2, r3, [sp, #8]
 80002bc:	b004      	add	sp, #16
 80002be:	4770      	bx	lr

080002c0 <__udivmoddi4>:
 80002c0:	e92d 47f0 	stmdb	sp!, {r4, r5, r6, r7, r8, r9, sl, lr}
 80002c4:	9d08      	ldr	r5, [sp, #32]
 80002c6:	460c      	mov	r4, r1
 80002c8:	2b00      	cmp	r3, #0
 80002ca:	d14e      	bne.n	800036a <__udivmoddi4+0xaa>
 80002cc:	4694      	mov	ip, r2
 80002ce:	458c      	cmp	ip, r1
 80002d0:	4686      	mov	lr, r0
 80002d2:	fab2 f282 	clz	r2, r2
 80002d6:	d962      	bls.n	800039e <__udivmoddi4+0xde>
 80002d8:	b14a      	cbz	r2, 80002ee <__udivmoddi4+0x2e>
 80002da:	f1c2 0320 	rsb	r3, r2, #32
 80002de:	4091      	lsls	r1, r2
 80002e0:	fa20 f303 	lsr.w	r3, r0, r3
 80002e4:	fa0c fc02 	lsl.w	ip, ip, r2
 80002e8:	4319      	orrs	r1, r3
 80002ea:	fa00 fe02 	lsl.w	lr, r0, r2
 80002ee:	ea4f 471c 	mov.w	r7, ip, lsr #16
 80002f2:	fa1f f68c 	uxth.w	r6, ip
 80002f6:	fbb1 f4f7 	udiv	r4, r1, r7
 80002fa:	ea4f 431e 	mov.w	r3, lr, lsr #16
 80002fe:	fb07 1114 	mls	r1, r7, r4, r1
 8000302:	ea43 4301 	orr.w	r3, r3, r1, lsl #16
 8000306:	fb04 f106 	mul.w	r1, r4, r6
 800030a:	4299      	cmp	r1, r3
 800030c:	d90a      	bls.n	8000324 <__udivmoddi4+0x64>
 800030e:	eb1c 0303 	adds.w	r3, ip, r3
 8000312:	f104 30ff 	add.w	r0, r4, #4294967295
 8000316:	f080 8112 	bcs.w	800053e <__udivmoddi4+0x27e>
 800031a:	4299      	cmp	r1, r3
 800031c:	f240 810f 	bls.w	800053e <__udivmoddi4+0x27e>
 8000320:	3c02      	subs	r4, #2
 8000322:	4463      	add	r3, ip
 8000324:	1a59      	subs	r1, r3, r1
 8000326:	fa1f f38e 	uxth.w	r3, lr
 800032a:	fbb1 f0f7 	udiv	r0, r1, r7
 800032e:	fb07 1110 	mls	r1, r7, r0, r1
 8000332:	ea43 4301 	orr.w	r3, r3, r1, lsl #16
 8000336:	fb00 f606 	mul.w	r6, r0, r6
 800033a:	429e      	cmp	r6, r3
 800033c:	d90a      	bls.n	8000354 <__udivmoddi4+0x94>
 800033e:	eb1c 0303 	adds.w	r3, ip, r3
 8000342:	f100 31ff 	add.w	r1, r0, #4294967295
 8000346:	f080 80fc 	bcs.w	8000542 <__udivmoddi4+0x282>
 800034a:	429e      	cmp	r6, r3
 800034c:	f240 80f9 	bls.w	8000542 <__udivmoddi4+0x282>
 8000350:	4463      	add	r3, ip
 8000352:	3802      	subs	r0, #2
 8000354:	1b9b      	subs	r3, r3, r6
 8000356:	ea40 4004 	orr.w	r0, r0, r4, lsl #16
 800035a:	2100      	movs	r1, #0
 800035c:	b11d      	cbz	r5, 8000366 <__udivmoddi4+0xa6>
 800035e:	40d3      	lsrs	r3, r2
 8000360:	2200      	movs	r2, #0
 8000362:	e9c5 3200 	strd	r3, r2, [r5]
 8000366:	e8bd 87f0 	ldmia.w	sp!, {r4, r5, r6, r7, r8, r9, sl, pc}
 800036a:	428b      	cmp	r3, r1
 800036c:	d905      	bls.n	800037a <__udivmoddi4+0xba>
 800036e:	b10d      	cbz	r5, 8000374 <__udivmoddi4+0xb4>
 8000370:	e9c5 0100 	strd	r0, r1, [r5]
 8000374:	2100      	movs	r1, #0
 8000376:	4608      	mov	r0, r1
 8000378:	e7f5      	b.n	8000366 <__udivmoddi4+0xa6>
 800037a:	fab3 f183 	clz	r1, r3
 800037e:	2900      	cmp	r1, #0
 8000380:	d146      	bne.n	8000410 <__udivmoddi4+0x150>
 8000382:	42a3      	cmp	r3, r4
 8000384:	d302      	bcc.n	800038c <__udivmoddi4+0xcc>
 8000386:	4290      	cmp	r0, r2
 8000388:	f0c0 80f0 	bcc.w	800056c <__udivmoddi4+0x2ac>
 800038c:	1a86      	subs	r6, r0, r2
 800038e:	eb64 0303 	sbc.w	r3, r4, r3
 8000392:	2001      	movs	r0, #1
 8000394:	2d00      	cmp	r5, #0
 8000396:	d0e6      	beq.n	8000366 <__udivmoddi4+0xa6>
 8000398:	e9c5 6300 	strd	r6, r3, [r5]
 800039c:	e7e3      	b.n	8000366 <__udivmoddi4+0xa6>
 800039e:	2a00      	cmp	r2, #0
 80003a0:	f040 8090 	bne.w	80004c4 <__udivmoddi4+0x204>
 80003a4:	eba1 040c 	sub.w	r4, r1, ip
 80003a8:	ea4f 481c 	mov.w	r8, ip, lsr #16
 80003ac:	fa1f f78c 	uxth.w	r7, ip
 80003b0:	2101      	movs	r1, #1
 80003b2:	fbb4 f6f8 	udiv	r6, r4, r8
 80003b6:	ea4f 431e 	mov.w	r3, lr, lsr #16
 80003ba:	fb08 4416 	mls	r4, r8, r6, r4
 80003be:	ea43 4304 	orr.w	r3, r3, r4, lsl #16
 80003c2:	fb07 f006 	mul.w	r0, r7, r6
 80003c6:	4298      	cmp	r0, r3
 80003c8:	d908      	bls.n	80003dc <__udivmoddi4+0x11c>
 80003ca:	eb1c 0303 	adds.w	r3, ip, r3
 80003ce:	f106 34ff 	add.w	r4, r6, #4294967295
 80003d2:	d202      	bcs.n	80003da <__udivmoddi4+0x11a>
 80003d4:	4298      	cmp	r0, r3
 80003d6:	f200 80cd 	bhi.w	8000574 <__udivmoddi4+0x2b4>
 80003da:	4626      	mov	r6, r4
 80003dc:	1a1c      	subs	r4, r3, r0
 80003de:	fa1f f38e 	uxth.w	r3, lr
 80003e2:	fbb4 f0f8 	udiv	r0, r4, r8
 80003e6:	fb08 4410 	mls	r4, r8, r0, r4
 80003ea:	ea43 4304 	orr.w	r3, r3, r4, lsl #16
 80003ee:	fb00 f707 	mul.w	r7, r0, r7
 80003f2:	429f      	cmp	r7, r3
 80003f4:	d908      	bls.n	8000408 <__udivmoddi4+0x148>
 80003f6:	eb1c 0303 	adds.w	r3, ip, r3
 80003fa:	f100 34ff 	add.w	r4, r0, #4294967295
 80003fe:	d202      	bcs.n	8000406 <__udivmoddi4+0x146>
 8000400:	429f      	cmp	r7, r3
 8000402:	f200 80b0 	bhi.w	8000566 <__udivmoddi4+0x2a6>
 8000406:	4620      	mov	r0, r4
 8000408:	1bdb      	subs	r3, r3, r7
 800040a:	ea40 4006 	orr.w	r0, r0, r6, lsl #16
 800040e:	e7a5      	b.n	800035c <__udivmoddi4+0x9c>
 8000410:	f1c1 0620 	rsb	r6, r1, #32
 8000414:	408b      	lsls	r3, r1
 8000416:	fa22 f706 	lsr.w	r7, r2, r6
 800041a:	431f      	orrs	r7, r3
 800041c:	fa20 fc06 	lsr.w	ip, r0, r6
 8000420:	fa04 f301 	lsl.w	r3, r4, r1
 8000424:	ea43 030c 	orr.w	r3, r3, ip
 8000428:	40f4      	lsrs	r4, r6
 800042a:	fa00 f801 	lsl.w	r8, r0, r1
 800042e:	0c38      	lsrs	r0, r7, #16
 8000430:	ea4f 4913 	mov.w	r9, r3, lsr #16
 8000434:	fbb4 fef0 	udiv	lr, r4, r0
 8000438:	fa1f fc87 	uxth.w	ip, r7
 800043c:	fb00 441e 	mls	r4, r0, lr, r4
 8000440:	ea49 4404 	orr.w	r4, r9, r4, lsl #16
 8000444:	fb0e f90c 	mul.w	r9, lr, ip
 8000448:	45a1      	cmp	r9, r4
 800044a:	fa02 f201 	lsl.w	r2, r2, r1
 800044e:	d90a      	bls.n	8000466 <__udivmoddi4+0x1a6>
 8000450:	193c      	adds	r4, r7, r4
 8000452:	f10e 3aff 	add.w	sl, lr, #4294967295
 8000456:	f080 8084 	bcs.w	8000562 <__udivmoddi4+0x2a2>
 800045a:	45a1      	cmp	r9, r4
 800045c:	f240 8081 	bls.w	8000562 <__udivmoddi4+0x2a2>
 8000460:	f1ae 0e02 	sub.w	lr, lr, #2
 8000464:	443c      	add	r4, r7
 8000466:	eba4 0409 	sub.w	r4, r4, r9
 800046a:	fa1f f983 	uxth.w	r9, r3
 800046e:	fbb4 f3f0 	udiv	r3, r4, r0
 8000472:	fb00 4413 	mls	r4, r0, r3, r4
 8000476:	ea49 4404 	orr.w	r4, r9, r4, lsl #16
 800047a:	fb03 fc0c 	mul.w	ip, r3, ip
 800047e:	45a4      	cmp	ip, r4
 8000480:	d907      	bls.n	8000492 <__udivmoddi4+0x1d2>
 8000482:	193c      	adds	r4, r7, r4
 8000484:	f103 30ff 	add.w	r0, r3, #4294967295
 8000488:	d267      	bcs.n	800055a <__udivmoddi4+0x29a>
 800048a:	45a4      	cmp	ip, r4
 800048c:	d965      	bls.n	800055a <__udivmoddi4+0x29a>
 800048e:	3b02      	subs	r3, #2
 8000490:	443c      	add	r4, r7
 8000492:	ea43 400e 	orr.w	r0, r3, lr, lsl #16
 8000496:	fba0 9302 	umull	r9, r3, r0, r2
 800049a:	eba4 040c 	sub.w	r4, r4, ip
 800049e:	429c      	cmp	r4, r3
 80004a0:	46ce      	mov	lr, r9
 80004a2:	469c      	mov	ip, r3
 80004a4:	d351      	bcc.n	800054a <__udivmoddi4+0x28a>
 80004a6:	d04e      	beq.n	8000546 <__udivmoddi4+0x286>
 80004a8:	b155      	cbz	r5, 80004c0 <__udivmoddi4+0x200>
 80004aa:	ebb8 030e 	subs.w	r3, r8, lr
 80004ae:	eb64 040c 	sbc.w	r4, r4, ip
 80004b2:	fa04 f606 	lsl.w	r6, r4, r6
 80004b6:	40cb      	lsrs	r3, r1
 80004b8:	431e      	orrs	r6, r3
 80004ba:	40cc      	lsrs	r4, r1
 80004bc:	e9c5 6400 	strd	r6, r4, [r5]
 80004c0:	2100      	movs	r1, #0
 80004c2:	e750      	b.n	8000366 <__udivmoddi4+0xa6>
 80004c4:	f1c2 0320 	rsb	r3, r2, #32
 80004c8:	fa20 f103 	lsr.w	r1, r0, r3
 80004cc:	fa0c fc02 	lsl.w	ip, ip, r2
 80004d0:	fa24 f303 	lsr.w	r3, r4, r3
 80004d4:	4094      	lsls	r4, r2
 80004d6:	430c      	orrs	r4, r1
 80004d8:	ea4f 481c 	mov.w	r8, ip, lsr #16
 80004dc:	fa00 fe02 	lsl.w	lr, r0, r2
 80004e0:	fa1f f78c 	uxth.w	r7, ip
 80004e4:	fbb3 f0f8 	udiv	r0, r3, r8
 80004e8:	fb08 3110 	mls	r1, r8, r0, r3
 80004ec:	0c23      	lsrs	r3, r4, #16
 80004ee:	ea43 4301 	orr.w	r3, r3, r1, lsl #16
 80004f2:	fb00 f107 	mul.w	r1, r0, r7
 80004f6:	4299      	cmp	r1, r3
 80004f8:	d908      	bls.n	800050c <__udivmoddi4+0x24c>
 80004fa:	eb1c 0303 	adds.w	r3, ip, r3
 80004fe:	f100 36ff 	add.w	r6, r0, #4294967295
 8000502:	d22c      	bcs.n	800055e <__udivmoddi4+0x29e>
 8000504:	4299      	cmp	r1, r3
 8000506:	d92a      	bls.n	800055e <__udivmoddi4+0x29e>
 8000508:	3802      	subs	r0, #2
 800050a:	4463      	add	r3, ip
 800050c:	1a5b      	subs	r3, r3, r1
 800050e:	b2a4      	uxth	r4, r4
 8000510:	fbb3 f1f8 	udiv	r1, r3, r8
 8000514:	fb08 3311 	mls	r3, r8, r1, r3
 8000518:	ea44 4403 	orr.w	r4, r4, r3, lsl #16
 800051c:	fb01 f307 	mul.w	r3, r1, r7
 8000520:	42a3      	cmp	r3, r4
 8000522:	d908      	bls.n	8000536 <__udivmoddi4+0x276>
 8000524:	eb1c 0404 	adds.w	r4, ip, r4
 8000528:	f101 36ff 	add.w	r6, r1, #4294967295
 800052c:	d213      	bcs.n	8000556 <__udivmoddi4+0x296>
 800052e:	42a3      	cmp	r3, r4
 8000530:	d911      	bls.n	8000556 <__udivmoddi4+0x296>
 8000532:	3902      	subs	r1, #2
 8000534:	4464      	add	r4, ip
 8000536:	1ae4      	subs	r4, r4, r3
 8000538:	ea41 4100 	orr.w	r1, r1, r0, lsl #16
 800053c:	e739      	b.n	80003b2 <__udivmoddi4+0xf2>
 800053e:	4604      	mov	r4, r0
 8000540:	e6f0      	b.n	8000324 <__udivmoddi4+0x64>
 8000542:	4608      	mov	r0, r1
 8000544:	e706      	b.n	8000354 <__udivmoddi4+0x94>
 8000546:	45c8      	cmp	r8, r9
 8000548:	d2ae      	bcs.n	80004a8 <__udivmoddi4+0x1e8>
 800054a:	ebb9 0e02 	subs.w	lr, r9, r2
 800054e:	eb63 0c07 	sbc.w	ip, r3, r7
 8000552:	3801      	subs	r0, #1
 8000554:	e7a8      	b.n	80004a8 <__udivmoddi4+0x1e8>
 8000556:	4631      	mov	r1, r6
 8000558:	e7ed      	b.n	8000536 <__udivmoddi4+0x276>
 800055a:	4603      	mov	r3, r0
 800055c:	e799      	b.n	8000492 <__udivmoddi4+0x1d2>
 800055e:	4630      	mov	r0, r6
 8000560:	e7d4      	b.n	800050c <__udivmoddi4+0x24c>
 8000562:	46d6      	mov	lr, sl
 8000564:	e77f      	b.n	8000466 <__udivmoddi4+0x1a6>
 8000566:	4463      	add	r3, ip
 8000568:	3802      	subs	r0, #2
 800056a:	e74d      	b.n	8000408 <__udivmoddi4+0x148>
 800056c:	4606      	mov	r6, r0
 800056e:	4623      	mov	r3, r4
 8000570:	4608      	mov	r0, r1
 8000572:	e70f      	b.n	8000394 <__udivmoddi4+0xd4>
 8000574:	3e02      	subs	r6, #2
 8000576:	4463      	add	r3, ip
 8000578:	e730      	b.n	80003dc <__udivmoddi4+0x11c>
 800057a:	bf00      	nop

0800057c <__aeabi_idiv0>:
 800057c:	4770      	bx	lr
 800057e:	bf00      	nop

08000580 <HAL_UART_RxCpltCallback>:
 8000580:	b510      	push	{r4, lr}
 8000582:	4604      	mov	r4, r0
 8000584:	f44f 4100 	mov.w	r1, #32768	@ 0x8000
 8000588:	4812      	ldr	r0, [pc, #72]	@ (80005d4 <HAL_UART_RxCpltCallback+0x54>)
 800058a:	f001 fc72 	bl	8001e72 <HAL_GPIO_TogglePin>
 800058e:	6822      	ldr	r2, [r4, #0]
 8000590:	4b11      	ldr	r3, [pc, #68]	@ (80005d8 <HAL_UART_RxCpltCallback+0x58>)
 8000592:	429a      	cmp	r2, r3
 8000594:	d11c      	bne.n	80005d0 <HAL_UART_RxCpltCallback+0x50>
 8000596:	4b11      	ldr	r3, [pc, #68]	@ (80005dc <HAL_UART_RxCpltCallback+0x5c>)
 8000598:	881a      	ldrh	r2, [r3, #0]
 800059a:	2ac6      	cmp	r2, #198	@ 0xc6
 800059c:	d811      	bhi.n	80005c2 <HAL_UART_RxCpltCallback+0x42>
 800059e:	1c51      	adds	r1, r2, #1
 80005a0:	8019      	strh	r1, [r3, #0]
 80005a2:	4b0f      	ldr	r3, [pc, #60]	@ (80005e0 <HAL_UART_RxCpltCallback+0x60>)
 80005a4:	490f      	ldr	r1, [pc, #60]	@ (80005e4 <HAL_UART_RxCpltCallback+0x64>)
 80005a6:	781b      	ldrb	r3, [r3, #0]
 80005a8:	548b      	strb	r3, [r1, r2]
 80005aa:	2b0a      	cmp	r3, #10
 80005ac:	d102      	bne.n	80005b4 <HAL_UART_RxCpltCallback+0x34>
 80005ae:	4b0e      	ldr	r3, [pc, #56]	@ (80005e8 <HAL_UART_RxCpltCallback+0x68>)
 80005b0:	2201      	movs	r2, #1
 80005b2:	701a      	strb	r2, [r3, #0]
 80005b4:	e8bd 4010 	ldmia.w	sp!, {r4, lr}
 80005b8:	4909      	ldr	r1, [pc, #36]	@ (80005e0 <HAL_UART_RxCpltCallback+0x60>)
 80005ba:	480c      	ldr	r0, [pc, #48]	@ (80005ec <HAL_UART_RxCpltCallback+0x6c>)
 80005bc:	2201      	movs	r2, #1
 80005be:	f003 b924 	b.w	800380a <HAL_UART_Receive_IT>
 80005c2:	2100      	movs	r1, #0
 80005c4:	22c8      	movs	r2, #200	@ 0xc8
 80005c6:	4807      	ldr	r0, [pc, #28]	@ (80005e4 <HAL_UART_RxCpltCallback+0x64>)
 80005c8:	8019      	strh	r1, [r3, #0]
 80005ca:	f004 fea5 	bl	8005318 <memset>
 80005ce:	e7f1      	b.n	80005b4 <HAL_UART_RxCpltCallback+0x34>
 80005d0:	bd10      	pop	{r4, pc}
 80005d2:	bf00      	nop
 80005d4:	40020000 	.word	0x40020000
 80005d8:	40011000 	.word	0x40011000
 80005dc:	20000098 	.word	0x20000098
 80005e0:	20000096 	.word	0x20000096
 80005e4:	200000d6 	.word	0x200000d6
 80005e8:	20000095 	.word	0x20000095
 80005ec:	200001bc 	.word	0x200001bc

080005f0 <processReceivedData>:
 80005f0:	b510      	push	{r4, lr}
 80005f2:	4b05      	ldr	r3, [pc, #20]	@ (8000608 <processReceivedData+0x18>)
 80005f4:	781b      	ldrb	r3, [r3, #0]
 80005f6:	b913      	cbnz	r3, 80005fe <processReceivedData+0xe>
 80005f8:	461c      	mov	r4, r3
 80005fa:	4620      	mov	r0, r4
 80005fc:	bd10      	pop	{r4, pc}
 80005fe:	4803      	ldr	r0, [pc, #12]	@ (800060c <processReceivedData+0x1c>)
 8000600:	f000 ffda 	bl	80015b8 <log_to_sdcard>
 8000604:	e7f9      	b.n	80005fa <processReceivedData+0xa>
 8000606:	bf00      	nop
 8000608:	20000095 	.word	0x20000095
 800060c:	200000d6 	.word	0x200000d6

08000610 <MainInit>:
 8000610:	b508      	push	{r3, lr}
 8000612:	f000 fbd6 	bl	8000dc2 <lcd_init>
 8000616:	f001 fead 	bl	8002374 <HAL_PWR_EnableBkUpAccess>
 800061a:	480d      	ldr	r0, [pc, #52]	@ (8000650 <MainInit+0x40>)
 800061c:	2201      	movs	r2, #1
 800061e:	f44f 4100 	mov.w	r1, #32768	@ 0x8000
 8000622:	f001 fc21 	bl	8001e68 <HAL_GPIO_WritePin>
 8000626:	480b      	ldr	r0, [pc, #44]	@ (8000654 <MainInit+0x44>)
 8000628:	2101      	movs	r1, #1
 800062a:	f002 fbc4 	bl	8002db6 <HAL_RTCEx_BKUPRead>
 800062e:	f241 2334 	movw	r3, #4660	@ 0x1234
 8000632:	4298      	cmp	r0, r3
 8000634:	d007      	beq.n	8000646 <MainInit+0x36>
 8000636:	f000 ff3b 	bl	80014b0 <RTC_setTime>
 800063a:	f000 ff51 	bl	80014e0 <RTC_setDate>
 800063e:	e8bd 4008 	ldmia.w	sp!, {r3, lr}
 8000642:	f000 beef 	b.w	8001424 <RTC_Backup_Write>
 8000646:	e8bd 4008 	ldmia.w	sp!, {r3, lr}
 800064a:	f000 bef3 	b.w	8001434 <RTC_Backup_Read>
 800064e:	bf00      	nop
 8000650:	40020400 	.word	0x40020400
 8000654:	200002e4 	.word	0x200002e4

08000658 <MainApp>:
 8000658:	b508      	push	{r3, lr}
 800065a:	f000 fef1 	bl	8001440 <getDateTime>
 800065e:	f000 ff51 	bl	8001504 <DisplayDateTime>
 8000662:	480a      	ldr	r0, [pc, #40]	@ (800068c <MainApp+0x34>)
 8000664:	f44f 5100 	mov.w	r1, #8192	@ 0x2000
 8000668:	f001 fc03 	bl	8001e72 <HAL_GPIO_TogglePin>
 800066c:	4808      	ldr	r0, [pc, #32]	@ (8000690 <MainApp+0x38>)
 800066e:	f44f 4100 	mov.w	r1, #32768	@ 0x8000
 8000672:	f001 fbfe 	bl	8001e72 <HAL_GPIO_TogglePin>
 8000676:	4b07      	ldr	r3, [pc, #28]	@ (8000694 <MainApp+0x3c>)
 8000678:	2201      	movs	r2, #1
 800067a:	701a      	strb	r2, [r3, #0]
 800067c:	f7ff ffb8 	bl	80005f0 <processReceivedData>
 8000680:	e8bd 4008 	ldmia.w	sp!, {r3, lr}
 8000684:	20c8      	movs	r0, #200	@ 0xc8
 8000686:	f001 ba59 	b.w	8001b3c <HAL_Delay>
 800068a:	bf00      	nop
 800068c:	40020800 	.word	0x40020800
 8000690:	40020400 	.word	0x40020400
 8000694:	20000094 	.word	0x20000094

08000698 <HandleButtonPress>:
 8000698:	b538      	push	{r3, r4, r5, lr}
 800069a:	4d13      	ldr	r5, [pc, #76]	@ (80006e8 <HandleButtonPress+0x50>)
 800069c:	f001 fa48 	bl	8001b30 <HAL_GetTick>
 80006a0:	682b      	ldr	r3, [r5, #0]
 80006a2:	1ac3      	subs	r3, r0, r3
 80006a4:	2b31      	cmp	r3, #49	@ 0x31
 80006a6:	4604      	mov	r4, r0
 80006a8:	d90c      	bls.n	80006c4 <HandleButtonPress+0x2c>
 80006aa:	4810      	ldr	r0, [pc, #64]	@ (80006ec <HandleButtonPress+0x54>)
 80006ac:	2104      	movs	r1, #4
 80006ae:	f000 fc03 	bl	8000eb8 <ReadButton>
 80006b2:	b140      	cbz	r0, 80006c6 <HandleButtonPress+0x2e>
 80006b4:	480d      	ldr	r0, [pc, #52]	@ (80006ec <HandleButtonPress+0x54>)
 80006b6:	2101      	movs	r1, #1
 80006b8:	f000 fbfe 	bl	8000eb8 <ReadButton>
 80006bc:	b118      	cbz	r0, 80006c6 <HandleButtonPress+0x2e>
 80006be:	f000 fc1f 	bl	8000f00 <EditDate>
 80006c2:	602c      	str	r4, [r5, #0]
 80006c4:	bd38      	pop	{r3, r4, r5, pc}
 80006c6:	4809      	ldr	r0, [pc, #36]	@ (80006ec <HandleButtonPress+0x54>)
 80006c8:	2110      	movs	r1, #16
 80006ca:	f000 fbf5 	bl	8000eb8 <ReadButton>
 80006ce:	b138      	cbz	r0, 80006e0 <HandleButtonPress+0x48>
 80006d0:	4806      	ldr	r0, [pc, #24]	@ (80006ec <HandleButtonPress+0x54>)
 80006d2:	2104      	movs	r1, #4
 80006d4:	f000 fbf0 	bl	8000eb8 <ReadButton>
 80006d8:	b110      	cbz	r0, 80006e0 <HandleButtonPress+0x48>
 80006da:	f000 ffe5 	bl	80016a8 <ReadsdCardStorage>
 80006de:	e7f0      	b.n	80006c2 <HandleButtonPress+0x2a>
 80006e0:	f7ff ffba 	bl	8000658 <MainApp>
 80006e4:	e7ed      	b.n	80006c2 <HandleButtonPress+0x2a>
 80006e6:	bf00      	nop
 80006e8:	20000090 	.word	0x20000090
 80006ec:	40020000 	.word	0x40020000

080006f0 <SPI_TxBuffer>:
 80006f0:	4b05      	ldr	r3, [pc, #20]	@ (8000708 <SPI_TxBuffer+0x18>)
 80006f2:	460a      	mov	r2, r1
 80006f4:	6819      	ldr	r1, [r3, #0]
 80006f6:	688b      	ldr	r3, [r1, #8]
 80006f8:	079b      	lsls	r3, r3, #30
 80006fa:	d5fc      	bpl.n	80006f6 <SPI_TxBuffer+0x6>
 80006fc:	4601      	mov	r1, r0
 80006fe:	2364      	movs	r3, #100	@ 0x64
 8000700:	4801      	ldr	r0, [pc, #4]	@ (8000708 <SPI_TxBuffer+0x18>)
 8000702:	f002 bc51 	b.w	8002fa8 <HAL_SPI_Transmit>
 8000706:	bf00      	nop
 8000708:	20000204 	.word	0x20000204

0800070c <SPI_TxByte>:
 800070c:	b507      	push	{r0, r1, r2, lr}
 800070e:	4b08      	ldr	r3, [pc, #32]	@ (8000730 <SPI_TxByte+0x24>)
 8000710:	f88d 0007 	strb.w	r0, [sp, #7]
 8000714:	681a      	ldr	r2, [r3, #0]
 8000716:	6893      	ldr	r3, [r2, #8]
 8000718:	079b      	lsls	r3, r3, #30
 800071a:	d5fc      	bpl.n	8000716 <SPI_TxByte+0xa>
 800071c:	2364      	movs	r3, #100	@ 0x64
 800071e:	2201      	movs	r2, #1
 8000720:	f10d 0107 	add.w	r1, sp, #7
 8000724:	4802      	ldr	r0, [pc, #8]	@ (8000730 <SPI_TxByte+0x24>)
 8000726:	f002 fc3f 	bl	8002fa8 <HAL_SPI_Transmit>
 800072a:	b003      	add	sp, #12
 800072c:	f85d fb04 	ldr.w	pc, [sp], #4
 8000730:	20000204 	.word	0x20000204

08000734 <SELECT>:
 8000734:	b508      	push	{r3, lr}
 8000736:	4805      	ldr	r0, [pc, #20]	@ (800074c <SELECT+0x18>)
 8000738:	2200      	movs	r2, #0
 800073a:	2101      	movs	r1, #1
 800073c:	f001 fb94 	bl	8001e68 <HAL_GPIO_WritePin>
 8000740:	e8bd 4008 	ldmia.w	sp!, {r3, lr}
 8000744:	2001      	movs	r0, #1
 8000746:	f001 b9f9 	b.w	8001b3c <HAL_Delay>
 800074a:	bf00      	nop
 800074c:	40020400 	.word	0x40020400

08000750 <DESELECT>:
 8000750:	b508      	push	{r3, lr}
 8000752:	2201      	movs	r2, #1
 8000754:	4804      	ldr	r0, [pc, #16]	@ (8000768 <DESELECT+0x18>)
 8000756:	4611      	mov	r1, r2
 8000758:	f001 fb86 	bl	8001e68 <HAL_GPIO_WritePin>
 800075c:	e8bd 4008 	ldmia.w	sp!, {r3, lr}
 8000760:	2001      	movs	r0, #1
 8000762:	f001 b9eb 	b.w	8001b3c <HAL_Delay>
 8000766:	bf00      	nop
 8000768:	40020400 	.word	0x40020400

0800076c <SPI_RxByte>:
 800076c:	b51f      	push	{r0, r1, r2, r3, r4, lr}
 800076e:	23ff      	movs	r3, #255	@ 0xff
 8000770:	f88d 300e 	strb.w	r3, [sp, #14]
 8000774:	4b09      	ldr	r3, [pc, #36]	@ (800079c <SPI_RxByte+0x30>)
 8000776:	681a      	ldr	r2, [r3, #0]
 8000778:	6893      	ldr	r3, [r2, #8]
 800077a:	079b      	lsls	r3, r3, #30
 800077c:	d5fc      	bpl.n	8000778 <SPI_RxByte+0xc>
 800077e:	2364      	movs	r3, #100	@ 0x64
 8000780:	9300      	str	r3, [sp, #0]
 8000782:	f10d 020f 	add.w	r2, sp, #15
 8000786:	2301      	movs	r3, #1
 8000788:	f10d 010e 	add.w	r1, sp, #14
 800078c:	4803      	ldr	r0, [pc, #12]	@ (800079c <SPI_RxByte+0x30>)
 800078e:	f002 fcbb 	bl	8003108 <HAL_SPI_TransmitReceive>
 8000792:	f89d 000f 	ldrb.w	r0, [sp, #15]
 8000796:	b005      	add	sp, #20
 8000798:	f85d fb04 	ldr.w	pc, [sp], #4
 800079c:	20000204 	.word	0x20000204

080007a0 <SD_PowerOn>:
 80007a0:	b513      	push	{r0, r1, r4, lr}
 80007a2:	f7ff ffd5 	bl	8000750 <DESELECT>
 80007a6:	240a      	movs	r4, #10
 80007a8:	20ff      	movs	r0, #255	@ 0xff
 80007aa:	f7ff ffaf 	bl	800070c <SPI_TxByte>
 80007ae:	3c01      	subs	r4, #1
 80007b0:	d1fa      	bne.n	80007a8 <SD_PowerOn+0x8>
 80007b2:	f7ff ffbf 	bl	8000734 <SELECT>
 80007b6:	2340      	movs	r3, #64	@ 0x40
 80007b8:	9300      	str	r3, [sp, #0]
 80007ba:	2106      	movs	r1, #6
 80007bc:	f44f 4315 	mov.w	r3, #38144	@ 0x9500
 80007c0:	4668      	mov	r0, sp
 80007c2:	f8ad 3004 	strh.w	r3, [sp, #4]
 80007c6:	f7ff ff93 	bl	80006f0 <SPI_TxBuffer>
 80007ca:	f44f 5400 	mov.w	r4, #8192	@ 0x2000
 80007ce:	f7ff ffcd 	bl	800076c <SPI_RxByte>
 80007d2:	2801      	cmp	r0, #1
 80007d4:	d001      	beq.n	80007da <SD_PowerOn+0x3a>
 80007d6:	3c01      	subs	r4, #1
 80007d8:	d1f9      	bne.n	80007ce <SD_PowerOn+0x2e>
 80007da:	f7ff ffb9 	bl	8000750 <DESELECT>
 80007de:	20ff      	movs	r0, #255	@ 0xff
 80007e0:	f7ff ff94 	bl	800070c <SPI_TxByte>
 80007e4:	4b02      	ldr	r3, [pc, #8]	@ (80007f0 <SD_PowerOn+0x50>)
 80007e6:	2201      	movs	r2, #1
 80007e8:	701a      	strb	r2, [r3, #0]
 80007ea:	b002      	add	sp, #8
 80007ec:	bd10      	pop	{r4, pc}
 80007ee:	bf00      	nop
 80007f0:	2000019e 	.word	0x2000019e

080007f4 <SD_ReadyWait>:
 80007f4:	b510      	push	{r4, lr}
 80007f6:	4c06      	ldr	r4, [pc, #24]	@ (8000810 <SD_ReadyWait+0x1c>)
 80007f8:	f44f 73fa 	mov.w	r3, #500	@ 0x1f4
 80007fc:	8023      	strh	r3, [r4, #0]
 80007fe:	f7ff ffb5 	bl	800076c <SPI_RxByte>
 8000802:	28ff      	cmp	r0, #255	@ 0xff
 8000804:	d003      	beq.n	800080e <SD_ReadyWait+0x1a>
 8000806:	8823      	ldrh	r3, [r4, #0]
 8000808:	b29b      	uxth	r3, r3
 800080a:	2b00      	cmp	r3, #0
 800080c:	d1f7      	bne.n	80007fe <SD_ReadyWait+0xa>
 800080e:	bd10      	pop	{r4, pc}
 8000810:	20002378 	.word	0x20002378

08000814 <SD_TxDataBlock>:
 8000814:	b570      	push	{r4, r5, r6, lr}
 8000816:	4606      	mov	r6, r0
 8000818:	460d      	mov	r5, r1
 800081a:	f7ff ffeb 	bl	80007f4 <SD_ReadyWait>
 800081e:	28ff      	cmp	r0, #255	@ 0xff
 8000820:	f04f 0400 	mov.w	r4, #0
 8000824:	d123      	bne.n	800086e <SD_TxDataBlock+0x5a>
 8000826:	4628      	mov	r0, r5
 8000828:	f7ff ff70 	bl	800070c <SPI_TxByte>
 800082c:	2dfd      	cmp	r5, #253	@ 0xfd
 800082e:	d018      	beq.n	8000862 <SD_TxDataBlock+0x4e>
 8000830:	f44f 7100 	mov.w	r1, #512	@ 0x200
 8000834:	4630      	mov	r0, r6
 8000836:	f7ff ff5b 	bl	80006f0 <SPI_TxBuffer>
 800083a:	f7ff ff97 	bl	800076c <SPI_RxByte>
 800083e:	f7ff ff95 	bl	800076c <SPI_RxByte>
 8000842:	2541      	movs	r5, #65	@ 0x41
 8000844:	f7ff ff92 	bl	800076c <SPI_RxByte>
 8000848:	f000 031f 	and.w	r3, r0, #31
 800084c:	2b05      	cmp	r3, #5
 800084e:	4604      	mov	r4, r0
 8000850:	d003      	beq.n	800085a <SD_TxDataBlock+0x46>
 8000852:	3d01      	subs	r5, #1
 8000854:	f015 05ff 	ands.w	r5, r5, #255	@ 0xff
 8000858:	d1f4      	bne.n	8000844 <SD_TxDataBlock+0x30>
 800085a:	f7ff ff87 	bl	800076c <SPI_RxByte>
 800085e:	2800      	cmp	r0, #0
 8000860:	d0fb      	beq.n	800085a <SD_TxDataBlock+0x46>
 8000862:	f004 041f 	and.w	r4, r4, #31
 8000866:	1f63      	subs	r3, r4, #5
 8000868:	4258      	negs	r0, r3
 800086a:	4158      	adcs	r0, r3
 800086c:	bd70      	pop	{r4, r5, r6, pc}
 800086e:	4620      	mov	r0, r4
 8000870:	e7fc      	b.n	800086c <SD_TxDataBlock+0x58>

08000872 <SD_SendCmd>:
 8000872:	b538      	push	{r3, r4, r5, lr}
 8000874:	4604      	mov	r4, r0
 8000876:	460d      	mov	r5, r1
 8000878:	f7ff ffbc 	bl	80007f4 <SD_ReadyWait>
 800087c:	28ff      	cmp	r0, #255	@ 0xff
 800087e:	d128      	bne.n	80008d2 <SD_SendCmd+0x60>
 8000880:	4620      	mov	r0, r4
 8000882:	f7ff ff43 	bl	800070c <SPI_TxByte>
 8000886:	0e28      	lsrs	r0, r5, #24
 8000888:	f7ff ff40 	bl	800070c <SPI_TxByte>
 800088c:	f3c5 4007 	ubfx	r0, r5, #16, #8
 8000890:	f7ff ff3c 	bl	800070c <SPI_TxByte>
 8000894:	f3c5 2007 	ubfx	r0, r5, #8, #8
 8000898:	f7ff ff38 	bl	800070c <SPI_TxByte>
 800089c:	b2e8      	uxtb	r0, r5
 800089e:	f7ff ff35 	bl	800070c <SPI_TxByte>
 80008a2:	2c40      	cmp	r4, #64	@ 0x40
 80008a4:	d013      	beq.n	80008ce <SD_SendCmd+0x5c>
 80008a6:	2c48      	cmp	r4, #72	@ 0x48
 80008a8:	bf0c      	ite	eq
 80008aa:	2087      	moveq	r0, #135	@ 0x87
 80008ac:	2001      	movne	r0, #1
 80008ae:	f7ff ff2d 	bl	800070c <SPI_TxByte>
 80008b2:	2c4c      	cmp	r4, #76	@ 0x4c
 80008b4:	d101      	bne.n	80008ba <SD_SendCmd+0x48>
 80008b6:	f7ff ff59 	bl	800076c <SPI_RxByte>
 80008ba:	240a      	movs	r4, #10
 80008bc:	f7ff ff56 	bl	800076c <SPI_RxByte>
 80008c0:	0603      	lsls	r3, r0, #24
 80008c2:	d503      	bpl.n	80008cc <SD_SendCmd+0x5a>
 80008c4:	3c01      	subs	r4, #1
 80008c6:	f014 04ff 	ands.w	r4, r4, #255	@ 0xff
 80008ca:	d1f7      	bne.n	80008bc <SD_SendCmd+0x4a>
 80008cc:	bd38      	pop	{r3, r4, r5, pc}
 80008ce:	2095      	movs	r0, #149	@ 0x95
 80008d0:	e7ed      	b.n	80008ae <SD_SendCmd+0x3c>
 80008d2:	20ff      	movs	r0, #255	@ 0xff
 80008d4:	e7fa      	b.n	80008cc <SD_SendCmd+0x5a>
	...

080008d8 <SD_RxDataBlock>:
 80008d8:	b570      	push	{r4, r5, r6, lr}
 80008da:	4d10      	ldr	r5, [pc, #64]	@ (800091c <SD_RxDataBlock+0x44>)
 80008dc:	23c8      	movs	r3, #200	@ 0xc8
 80008de:	4604      	mov	r4, r0
 80008e0:	460e      	mov	r6, r1
 80008e2:	802b      	strh	r3, [r5, #0]
 80008e4:	f7ff ff42 	bl	800076c <SPI_RxByte>
 80008e8:	28ff      	cmp	r0, #255	@ 0xff
 80008ea:	d104      	bne.n	80008f6 <SD_RxDataBlock+0x1e>
 80008ec:	8828      	ldrh	r0, [r5, #0]
 80008ee:	b280      	uxth	r0, r0
 80008f0:	2800      	cmp	r0, #0
 80008f2:	d1f7      	bne.n	80008e4 <SD_RxDataBlock+0xc>
 80008f4:	bd70      	pop	{r4, r5, r6, pc}
 80008f6:	28fe      	cmp	r0, #254	@ 0xfe
 80008f8:	d10d      	bne.n	8000916 <SD_RxDataBlock+0x3e>
 80008fa:	1e65      	subs	r5, r4, #1
 80008fc:	4434      	add	r4, r6
 80008fe:	f7ff ff35 	bl	800076c <SPI_RxByte>
 8000902:	f805 0f01 	strb.w	r0, [r5, #1]!
 8000906:	42a5      	cmp	r5, r4
 8000908:	d1f9      	bne.n	80008fe <SD_RxDataBlock+0x26>
 800090a:	f7ff ff2f 	bl	800076c <SPI_RxByte>
 800090e:	f7ff ff2d 	bl	800076c <SPI_RxByte>
 8000912:	2001      	movs	r0, #1
 8000914:	e7ee      	b.n	80008f4 <SD_RxDataBlock+0x1c>
 8000916:	2000      	movs	r0, #0
 8000918:	e7ec      	b.n	80008f4 <SD_RxDataBlock+0x1c>
 800091a:	bf00      	nop
 800091c:	20002379 	.word	0x20002379

08000920 <SD_disk_initialize>:
 8000920:	e92d 41f3 	stmdb	sp!, {r0, r1, r4, r5, r6, r7, r8, lr}
 8000924:	2800      	cmp	r0, #0
 8000926:	f040 80a0 	bne.w	8000a6a <SD_disk_initialize+0x14a>
 800092a:	4e51      	ldr	r6, [pc, #324]	@ (8000a70 <SD_disk_initialize+0x150>)
 800092c:	7835      	ldrb	r5, [r6, #0]
 800092e:	f015 0502 	ands.w	r5, r5, #2
 8000932:	d004      	beq.n	800093e <SD_disk_initialize+0x1e>
 8000934:	7830      	ldrb	r0, [r6, #0]
 8000936:	b2c0      	uxtb	r0, r0
 8000938:	b002      	add	sp, #8
 800093a:	e8bd 81f0 	ldmia.w	sp!, {r4, r5, r6, r7, r8, pc}
 800093e:	f7ff ff2f 	bl	80007a0 <SD_PowerOn>
 8000942:	f7ff fef7 	bl	8000734 <SELECT>
 8000946:	4629      	mov	r1, r5
 8000948:	2040      	movs	r0, #64	@ 0x40
 800094a:	f7ff ff92 	bl	8000872 <SD_SendCmd>
 800094e:	2801      	cmp	r0, #1
 8000950:	4604      	mov	r4, r0
 8000952:	d00d      	beq.n	8000970 <SD_disk_initialize+0x50>
 8000954:	2400      	movs	r4, #0
 8000956:	4b47      	ldr	r3, [pc, #284]	@ (8000a74 <SD_disk_initialize+0x154>)
 8000958:	701c      	strb	r4, [r3, #0]
 800095a:	f7ff fef9 	bl	8000750 <DESELECT>
 800095e:	f7ff ff05 	bl	800076c <SPI_RxByte>
 8000962:	2c00      	cmp	r4, #0
 8000964:	d07e      	beq.n	8000a64 <SD_disk_initialize+0x144>
 8000966:	7833      	ldrb	r3, [r6, #0]
 8000968:	f003 03fe 	and.w	r3, r3, #254	@ 0xfe
 800096c:	7033      	strb	r3, [r6, #0]
 800096e:	e7e1      	b.n	8000934 <SD_disk_initialize+0x14>
 8000970:	4f41      	ldr	r7, [pc, #260]	@ (8000a78 <SD_disk_initialize+0x158>)
 8000972:	f44f 737a 	mov.w	r3, #1000	@ 0x3e8
 8000976:	f44f 71d5 	mov.w	r1, #426	@ 0x1aa
 800097a:	2048      	movs	r0, #72	@ 0x48
 800097c:	803b      	strh	r3, [r7, #0]
 800097e:	f7ff ff78 	bl	8000872 <SD_SendCmd>
 8000982:	2801      	cmp	r0, #1
 8000984:	d13f      	bne.n	8000a06 <SD_disk_initialize+0xe6>
 8000986:	ad01      	add	r5, sp, #4
 8000988:	46a8      	mov	r8, r5
 800098a:	2404      	movs	r4, #4
 800098c:	f7ff feee 	bl	800076c <SPI_RxByte>
 8000990:	3c01      	subs	r4, #1
 8000992:	f014 04ff 	ands.w	r4, r4, #255	@ 0xff
 8000996:	f808 0b01 	strb.w	r0, [r8], #1
 800099a:	d1f7      	bne.n	800098c <SD_disk_initialize+0x6c>
 800099c:	f89d 3006 	ldrb.w	r3, [sp, #6]
 80009a0:	2b01      	cmp	r3, #1
 80009a2:	d1d7      	bne.n	8000954 <SD_disk_initialize+0x34>
 80009a4:	f89d 3007 	ldrb.w	r3, [sp, #7]
 80009a8:	2baa      	cmp	r3, #170	@ 0xaa
 80009aa:	d1d3      	bne.n	8000954 <SD_disk_initialize+0x34>
 80009ac:	2100      	movs	r1, #0
 80009ae:	2077      	movs	r0, #119	@ 0x77
 80009b0:	f7ff ff5f 	bl	8000872 <SD_SendCmd>
 80009b4:	2801      	cmp	r0, #1
 80009b6:	d91e      	bls.n	80009f6 <SD_disk_initialize+0xd6>
 80009b8:	883b      	ldrh	r3, [r7, #0]
 80009ba:	b29b      	uxth	r3, r3
 80009bc:	2b00      	cmp	r3, #0
 80009be:	d1f5      	bne.n	80009ac <SD_disk_initialize+0x8c>
 80009c0:	883b      	ldrh	r3, [r7, #0]
 80009c2:	b29b      	uxth	r3, r3
 80009c4:	2b00      	cmp	r3, #0
 80009c6:	d0c5      	beq.n	8000954 <SD_disk_initialize+0x34>
 80009c8:	2100      	movs	r1, #0
 80009ca:	207a      	movs	r0, #122	@ 0x7a
 80009cc:	f7ff ff51 	bl	8000872 <SD_SendCmd>
 80009d0:	2800      	cmp	r0, #0
 80009d2:	d1bf      	bne.n	8000954 <SD_disk_initialize+0x34>
 80009d4:	2404      	movs	r4, #4
 80009d6:	f7ff fec9 	bl	800076c <SPI_RxByte>
 80009da:	3c01      	subs	r4, #1
 80009dc:	f014 04ff 	ands.w	r4, r4, #255	@ 0xff
 80009e0:	f805 0b01 	strb.w	r0, [r5], #1
 80009e4:	d1f7      	bne.n	80009d6 <SD_disk_initialize+0xb6>
 80009e6:	f89d 3004 	ldrb.w	r3, [sp, #4]
 80009ea:	f013 0f40 	tst.w	r3, #64	@ 0x40
 80009ee:	bf0c      	ite	eq
 80009f0:	2404      	moveq	r4, #4
 80009f2:	240c      	movne	r4, #12
 80009f4:	e7af      	b.n	8000956 <SD_disk_initialize+0x36>
 80009f6:	f04f 4180 	mov.w	r1, #1073741824	@ 0x40000000
 80009fa:	2069      	movs	r0, #105	@ 0x69
 80009fc:	f7ff ff39 	bl	8000872 <SD_SendCmd>
 8000a00:	2800      	cmp	r0, #0
 8000a02:	d1d9      	bne.n	80009b8 <SD_disk_initialize+0x98>
 8000a04:	e7dc      	b.n	80009c0 <SD_disk_initialize+0xa0>
 8000a06:	4629      	mov	r1, r5
 8000a08:	2077      	movs	r0, #119	@ 0x77
 8000a0a:	f7ff ff32 	bl	8000872 <SD_SendCmd>
 8000a0e:	2801      	cmp	r0, #1
 8000a10:	d806      	bhi.n	8000a20 <SD_disk_initialize+0x100>
 8000a12:	4629      	mov	r1, r5
 8000a14:	2069      	movs	r0, #105	@ 0x69
 8000a16:	f7ff ff2c 	bl	8000872 <SD_SendCmd>
 8000a1a:	2801      	cmp	r0, #1
 8000a1c:	bf98      	it	ls
 8000a1e:	2402      	movls	r4, #2
 8000a20:	2c02      	cmp	r4, #2
 8000a22:	f04f 0100 	mov.w	r1, #0
 8000a26:	d11b      	bne.n	8000a60 <SD_disk_initialize+0x140>
 8000a28:	2077      	movs	r0, #119	@ 0x77
 8000a2a:	f7ff ff22 	bl	8000872 <SD_SendCmd>
 8000a2e:	2801      	cmp	r0, #1
 8000a30:	d90f      	bls.n	8000a52 <SD_disk_initialize+0x132>
 8000a32:	883b      	ldrh	r3, [r7, #0]
 8000a34:	b29b      	uxth	r3, r3
 8000a36:	2b00      	cmp	r3, #0
 8000a38:	d1f2      	bne.n	8000a20 <SD_disk_initialize+0x100>
 8000a3a:	883b      	ldrh	r3, [r7, #0]
 8000a3c:	b29b      	uxth	r3, r3
 8000a3e:	2b00      	cmp	r3, #0
 8000a40:	d088      	beq.n	8000954 <SD_disk_initialize+0x34>
 8000a42:	f44f 7100 	mov.w	r1, #512	@ 0x200
 8000a46:	2050      	movs	r0, #80	@ 0x50
 8000a48:	f7ff ff13 	bl	8000872 <SD_SendCmd>
 8000a4c:	2800      	cmp	r0, #0
 8000a4e:	d181      	bne.n	8000954 <SD_disk_initialize+0x34>
 8000a50:	e781      	b.n	8000956 <SD_disk_initialize+0x36>
 8000a52:	2100      	movs	r1, #0
 8000a54:	2069      	movs	r0, #105	@ 0x69
 8000a56:	f7ff ff0c 	bl	8000872 <SD_SendCmd>
 8000a5a:	2800      	cmp	r0, #0
 8000a5c:	d1e9      	bne.n	8000a32 <SD_disk_initialize+0x112>
 8000a5e:	e7ec      	b.n	8000a3a <SD_disk_initialize+0x11a>
 8000a60:	2041      	movs	r0, #65	@ 0x41
 8000a62:	e7f8      	b.n	8000a56 <SD_disk_initialize+0x136>
 8000a64:	4b05      	ldr	r3, [pc, #20]	@ (8000a7c <SD_disk_initialize+0x15c>)
 8000a66:	701c      	strb	r4, [r3, #0]
 8000a68:	e764      	b.n	8000934 <SD_disk_initialize+0x14>
 8000a6a:	2001      	movs	r0, #1
 8000a6c:	e764      	b.n	8000938 <SD_disk_initialize+0x18>
 8000a6e:	bf00      	nop
 8000a70:	20000000 	.word	0x20000000
 8000a74:	2000019f 	.word	0x2000019f
 8000a78:	20002379 	.word	0x20002379
 8000a7c:	2000019e 	.word	0x2000019e

08000a80 <SD_disk_status>:
 8000a80:	b918      	cbnz	r0, 8000a8a <SD_disk_status+0xa>
 8000a82:	4b03      	ldr	r3, [pc, #12]	@ (8000a90 <SD_disk_status+0x10>)
 8000a84:	7818      	ldrb	r0, [r3, #0]
 8000a86:	b2c0      	uxtb	r0, r0
 8000a88:	4770      	bx	lr
 8000a8a:	2001      	movs	r0, #1
 8000a8c:	4770      	bx	lr
 8000a8e:	bf00      	nop
 8000a90:	20000000 	.word	0x20000000

08000a94 <SD_disk_read>:
 8000a94:	b570      	push	{r4, r5, r6, lr}
 8000a96:	460e      	mov	r6, r1
 8000a98:	4615      	mov	r5, r2
 8000a9a:	461c      	mov	r4, r3
 8000a9c:	2800      	cmp	r0, #0
 8000a9e:	d137      	bne.n	8000b10 <SD_disk_read+0x7c>
 8000aa0:	2b00      	cmp	r3, #0
 8000aa2:	d035      	beq.n	8000b10 <SD_disk_read+0x7c>
 8000aa4:	4b1c      	ldr	r3, [pc, #112]	@ (8000b18 <SD_disk_read+0x84>)
 8000aa6:	781b      	ldrb	r3, [r3, #0]
 8000aa8:	07da      	lsls	r2, r3, #31
 8000aaa:	d433      	bmi.n	8000b14 <SD_disk_read+0x80>
 8000aac:	4b1b      	ldr	r3, [pc, #108]	@ (8000b1c <SD_disk_read+0x88>)
 8000aae:	781b      	ldrb	r3, [r3, #0]
 8000ab0:	075b      	lsls	r3, r3, #29
 8000ab2:	bf58      	it	pl
 8000ab4:	026d      	lslpl	r5, r5, #9
 8000ab6:	f7ff fe3d 	bl	8000734 <SELECT>
 8000aba:	2c01      	cmp	r4, #1
 8000abc:	4629      	mov	r1, r5
 8000abe:	d113      	bne.n	8000ae8 <SD_disk_read+0x54>
 8000ac0:	2051      	movs	r0, #81	@ 0x51
 8000ac2:	f7ff fed6 	bl	8000872 <SD_SendCmd>
 8000ac6:	b938      	cbnz	r0, 8000ad8 <SD_disk_read+0x44>
 8000ac8:	f44f 7100 	mov.w	r1, #512	@ 0x200
 8000acc:	4630      	mov	r0, r6
 8000ace:	f7ff ff03 	bl	80008d8 <SD_RxDataBlock>
 8000ad2:	fab0 f480 	clz	r4, r0
 8000ad6:	0964      	lsrs	r4, r4, #5
 8000ad8:	f7ff fe3a 	bl	8000750 <DESELECT>
 8000adc:	f7ff fe46 	bl	800076c <SPI_RxByte>
 8000ae0:	1e20      	subs	r0, r4, #0
 8000ae2:	bf18      	it	ne
 8000ae4:	2001      	movne	r0, #1
 8000ae6:	bd70      	pop	{r4, r5, r6, pc}
 8000ae8:	2052      	movs	r0, #82	@ 0x52
 8000aea:	f7ff fec2 	bl	8000872 <SD_SendCmd>
 8000aee:	2800      	cmp	r0, #0
 8000af0:	d1f2      	bne.n	8000ad8 <SD_disk_read+0x44>
 8000af2:	f44f 7100 	mov.w	r1, #512	@ 0x200
 8000af6:	4630      	mov	r0, r6
 8000af8:	f7ff feee 	bl	80008d8 <SD_RxDataBlock>
 8000afc:	b118      	cbz	r0, 8000b06 <SD_disk_read+0x72>
 8000afe:	3c01      	subs	r4, #1
 8000b00:	f506 7600 	add.w	r6, r6, #512	@ 0x200
 8000b04:	d1f5      	bne.n	8000af2 <SD_disk_read+0x5e>
 8000b06:	2100      	movs	r1, #0
 8000b08:	204c      	movs	r0, #76	@ 0x4c
 8000b0a:	f7ff feb2 	bl	8000872 <SD_SendCmd>
 8000b0e:	e7e3      	b.n	8000ad8 <SD_disk_read+0x44>
 8000b10:	2004      	movs	r0, #4
 8000b12:	e7e8      	b.n	8000ae6 <SD_disk_read+0x52>
 8000b14:	2003      	movs	r0, #3
 8000b16:	e7e6      	b.n	8000ae6 <SD_disk_read+0x52>
 8000b18:	20000000 	.word	0x20000000
 8000b1c:	2000019f 	.word	0x2000019f

08000b20 <SD_disk_write>:
 8000b20:	b5f8      	push	{r3, r4, r5, r6, r7, lr}
 8000b22:	460d      	mov	r5, r1
 8000b24:	4616      	mov	r6, r2
 8000b26:	461c      	mov	r4, r3
 8000b28:	2800      	cmp	r0, #0
 8000b2a:	d147      	bne.n	8000bbc <SD_disk_write+0x9c>
 8000b2c:	2b00      	cmp	r3, #0
 8000b2e:	d045      	beq.n	8000bbc <SD_disk_write+0x9c>
 8000b30:	4b25      	ldr	r3, [pc, #148]	@ (8000bc8 <SD_disk_write+0xa8>)
 8000b32:	781a      	ldrb	r2, [r3, #0]
 8000b34:	07d0      	lsls	r0, r2, #31
 8000b36:	d443      	bmi.n	8000bc0 <SD_disk_write+0xa0>
 8000b38:	781b      	ldrb	r3, [r3, #0]
 8000b3a:	0759      	lsls	r1, r3, #29
 8000b3c:	d442      	bmi.n	8000bc4 <SD_disk_write+0xa4>
 8000b3e:	4f23      	ldr	r7, [pc, #140]	@ (8000bcc <SD_disk_write+0xac>)
 8000b40:	783b      	ldrb	r3, [r7, #0]
 8000b42:	075a      	lsls	r2, r3, #29
 8000b44:	bf58      	it	pl
 8000b46:	0276      	lslpl	r6, r6, #9
 8000b48:	f7ff fdf4 	bl	8000734 <SELECT>
 8000b4c:	2c01      	cmp	r4, #1
 8000b4e:	d113      	bne.n	8000b78 <SD_disk_write+0x58>
 8000b50:	4631      	mov	r1, r6
 8000b52:	2058      	movs	r0, #88	@ 0x58
 8000b54:	f7ff fe8d 	bl	8000872 <SD_SendCmd>
 8000b58:	bb70      	cbnz	r0, 8000bb8 <SD_disk_write+0x98>
 8000b5a:	21fe      	movs	r1, #254	@ 0xfe
 8000b5c:	4628      	mov	r0, r5
 8000b5e:	f7ff fe59 	bl	8000814 <SD_TxDataBlock>
 8000b62:	fab0 f480 	clz	r4, r0
 8000b66:	0964      	lsrs	r4, r4, #5
 8000b68:	f7ff fdf2 	bl	8000750 <DESELECT>
 8000b6c:	f7ff fdfe 	bl	800076c <SPI_RxByte>
 8000b70:	1e20      	subs	r0, r4, #0
 8000b72:	bf18      	it	ne
 8000b74:	2001      	movne	r0, #1
 8000b76:	bdf8      	pop	{r3, r4, r5, r6, r7, pc}
 8000b78:	783b      	ldrb	r3, [r7, #0]
 8000b7a:	079b      	lsls	r3, r3, #30
 8000b7c:	d507      	bpl.n	8000b8e <SD_disk_write+0x6e>
 8000b7e:	2100      	movs	r1, #0
 8000b80:	2077      	movs	r0, #119	@ 0x77
 8000b82:	f7ff fe76 	bl	8000872 <SD_SendCmd>
 8000b86:	4621      	mov	r1, r4
 8000b88:	2057      	movs	r0, #87	@ 0x57
 8000b8a:	f7ff fe72 	bl	8000872 <SD_SendCmd>
 8000b8e:	4631      	mov	r1, r6
 8000b90:	2059      	movs	r0, #89	@ 0x59
 8000b92:	f7ff fe6e 	bl	8000872 <SD_SendCmd>
 8000b96:	2800      	cmp	r0, #0
 8000b98:	d1e6      	bne.n	8000b68 <SD_disk_write+0x48>
 8000b9a:	21fc      	movs	r1, #252	@ 0xfc
 8000b9c:	4628      	mov	r0, r5
 8000b9e:	f7ff fe39 	bl	8000814 <SD_TxDataBlock>
 8000ba2:	b118      	cbz	r0, 8000bac <SD_disk_write+0x8c>
 8000ba4:	3c01      	subs	r4, #1
 8000ba6:	f505 7500 	add.w	r5, r5, #512	@ 0x200
 8000baa:	d1f6      	bne.n	8000b9a <SD_disk_write+0x7a>
 8000bac:	21fd      	movs	r1, #253	@ 0xfd
 8000bae:	2000      	movs	r0, #0
 8000bb0:	f7ff fe30 	bl	8000814 <SD_TxDataBlock>
 8000bb4:	2800      	cmp	r0, #0
 8000bb6:	d1d7      	bne.n	8000b68 <SD_disk_write+0x48>
 8000bb8:	2401      	movs	r4, #1
 8000bba:	e7d5      	b.n	8000b68 <SD_disk_write+0x48>
 8000bbc:	2004      	movs	r0, #4
 8000bbe:	e7da      	b.n	8000b76 <SD_disk_write+0x56>
 8000bc0:	2003      	movs	r0, #3
 8000bc2:	e7d8      	b.n	8000b76 <SD_disk_write+0x56>
 8000bc4:	2002      	movs	r0, #2
 8000bc6:	e7d6      	b.n	8000b76 <SD_disk_write+0x56>
 8000bc8:	20000000 	.word	0x20000000
 8000bcc:	2000019f 	.word	0x2000019f

08000bd0 <SD_disk_ioctl>:
 8000bd0:	b57f      	push	{r0, r1, r2, r3, r4, r5, r6, lr}
 8000bd2:	460e      	mov	r6, r1
 8000bd4:	4615      	mov	r5, r2
 8000bd6:	4604      	mov	r4, r0
 8000bd8:	2800      	cmp	r0, #0
 8000bda:	f040 808f 	bne.w	8000cfc <SD_disk_ioctl+0x12c>
 8000bde:	2905      	cmp	r1, #5
 8000be0:	d113      	bne.n	8000c0a <SD_disk_ioctl+0x3a>
 8000be2:	7813      	ldrb	r3, [r2, #0]
 8000be4:	2b01      	cmp	r3, #1
 8000be6:	d009      	beq.n	8000bfc <SD_disk_ioctl+0x2c>
 8000be8:	2b02      	cmp	r3, #2
 8000bea:	d00a      	beq.n	8000c02 <SD_disk_ioctl+0x32>
 8000bec:	2b00      	cmp	r3, #0
 8000bee:	f040 8085 	bne.w	8000cfc <SD_disk_ioctl+0x12c>
 8000bf2:	4b44      	ldr	r3, [pc, #272]	@ (8000d04 <SD_disk_ioctl+0x134>)
 8000bf4:	7018      	strb	r0, [r3, #0]
 8000bf6:	4620      	mov	r0, r4
 8000bf8:	b004      	add	sp, #16
 8000bfa:	bd70      	pop	{r4, r5, r6, pc}
 8000bfc:	f7ff fdd0 	bl	80007a0 <SD_PowerOn>
 8000c00:	e7f9      	b.n	8000bf6 <SD_disk_ioctl+0x26>
 8000c02:	4b40      	ldr	r3, [pc, #256]	@ (8000d04 <SD_disk_ioctl+0x134>)
 8000c04:	781b      	ldrb	r3, [r3, #0]
 8000c06:	7053      	strb	r3, [r2, #1]
 8000c08:	e7f5      	b.n	8000bf6 <SD_disk_ioctl+0x26>
 8000c0a:	4b3f      	ldr	r3, [pc, #252]	@ (8000d08 <SD_disk_ioctl+0x138>)
 8000c0c:	781c      	ldrb	r4, [r3, #0]
 8000c0e:	f014 0401 	ands.w	r4, r4, #1
 8000c12:	d175      	bne.n	8000d00 <SD_disk_ioctl+0x130>
 8000c14:	f7ff fd8e 	bl	8000734 <SELECT>
 8000c18:	2e0d      	cmp	r6, #13
 8000c1a:	d86d      	bhi.n	8000cf8 <SD_disk_ioctl+0x128>
 8000c1c:	e8df f006 	tbb	[pc, r6]
 8000c20:	6c440748 	.word	0x6c440748
 8000c24:	6c6c6c6c 	.word	0x6c6c6c6c
 8000c28:	4f6c6c6c 	.word	0x4f6c6c6c
 8000c2c:	605d      	.short	0x605d
 8000c2e:	2100      	movs	r1, #0
 8000c30:	2049      	movs	r0, #73	@ 0x49
 8000c32:	f7ff fe1e 	bl	8000872 <SD_SendCmd>
 8000c36:	b128      	cbz	r0, 8000c44 <SD_disk_ioctl+0x74>
 8000c38:	2401      	movs	r4, #1
 8000c3a:	f7ff fd89 	bl	8000750 <DESELECT>
 8000c3e:	f7ff fd95 	bl	800076c <SPI_RxByte>
 8000c42:	e7d8      	b.n	8000bf6 <SD_disk_ioctl+0x26>
 8000c44:	2110      	movs	r1, #16
 8000c46:	4668      	mov	r0, sp
 8000c48:	f7ff fe46 	bl	80008d8 <SD_RxDataBlock>
 8000c4c:	2800      	cmp	r0, #0
 8000c4e:	d0f3      	beq.n	8000c38 <SD_disk_ioctl+0x68>
 8000c50:	f89d 1000 	ldrb.w	r1, [sp]
 8000c54:	f89d 3009 	ldrb.w	r3, [sp, #9]
 8000c58:	f89d 2008 	ldrb.w	r2, [sp, #8]
 8000c5c:	0989      	lsrs	r1, r1, #6
 8000c5e:	2901      	cmp	r1, #1
 8000c60:	d106      	bne.n	8000c70 <SD_disk_ioctl+0xa0>
 8000c62:	3301      	adds	r3, #1
 8000c64:	eb03 2302 	add.w	r3, r3, r2, lsl #8
 8000c68:	b29b      	uxth	r3, r3
 8000c6a:	029b      	lsls	r3, r3, #10
 8000c6c:	602b      	str	r3, [r5, #0]
 8000c6e:	e7e4      	b.n	8000c3a <SD_disk_ioctl+0x6a>
 8000c70:	f89d 1007 	ldrb.w	r1, [sp, #7]
 8000c74:	f89d 000a 	ldrb.w	r0, [sp, #10]
 8000c78:	0992      	lsrs	r2, r2, #6
 8000c7a:	eb02 0281 	add.w	r2, r2, r1, lsl #2
 8000c7e:	f89d 1006 	ldrb.w	r1, [sp, #6]
 8000c82:	0289      	lsls	r1, r1, #10
 8000c84:	f401 6140 	and.w	r1, r1, #3072	@ 0xc00
 8000c88:	3201      	adds	r2, #1
 8000c8a:	440a      	add	r2, r1
 8000c8c:	f89d 1005 	ldrb.w	r1, [sp, #5]
 8000c90:	005b      	lsls	r3, r3, #1
 8000c92:	f001 010f 	and.w	r1, r1, #15
 8000c96:	eb01 11d0 	add.w	r1, r1, r0, lsr #7
 8000c9a:	f003 0306 	and.w	r3, r3, #6
 8000c9e:	440b      	add	r3, r1
 8000ca0:	3b07      	subs	r3, #7
 8000ca2:	fa02 f303 	lsl.w	r3, r2, r3
 8000ca6:	e7e1      	b.n	8000c6c <SD_disk_ioctl+0x9c>
 8000ca8:	f44f 7300 	mov.w	r3, #512	@ 0x200
 8000cac:	802b      	strh	r3, [r5, #0]
 8000cae:	e7c4      	b.n	8000c3a <SD_disk_ioctl+0x6a>
 8000cb0:	f7ff fda0 	bl	80007f4 <SD_ReadyWait>
 8000cb4:	f1b0 04ff 	subs.w	r4, r0, #255	@ 0xff
 8000cb8:	bf18      	it	ne
 8000cba:	2401      	movne	r4, #1
 8000cbc:	e7bd      	b.n	8000c3a <SD_disk_ioctl+0x6a>
 8000cbe:	2100      	movs	r1, #0
 8000cc0:	2049      	movs	r0, #73	@ 0x49
 8000cc2:	f7ff fdd6 	bl	8000872 <SD_SendCmd>
 8000cc6:	2800      	cmp	r0, #0
 8000cc8:	d1b6      	bne.n	8000c38 <SD_disk_ioctl+0x68>
 8000cca:	2110      	movs	r1, #16
 8000ccc:	4628      	mov	r0, r5
 8000cce:	f7ff fe03 	bl	80008d8 <SD_RxDataBlock>
 8000cd2:	fab0 f480 	clz	r4, r0
 8000cd6:	0964      	lsrs	r4, r4, #5
 8000cd8:	e7af      	b.n	8000c3a <SD_disk_ioctl+0x6a>
 8000cda:	2100      	movs	r1, #0
 8000cdc:	204a      	movs	r0, #74	@ 0x4a
 8000cde:	e7f0      	b.n	8000cc2 <SD_disk_ioctl+0xf2>
 8000ce0:	2100      	movs	r1, #0
 8000ce2:	207a      	movs	r0, #122	@ 0x7a
 8000ce4:	f7ff fdc5 	bl	8000872 <SD_SendCmd>
 8000ce8:	b930      	cbnz	r0, 8000cf8 <SD_disk_ioctl+0x128>
 8000cea:	1d2c      	adds	r4, r5, #4
 8000cec:	f7ff fd3e 	bl	800076c <SPI_RxByte>
 8000cf0:	f805 0b01 	strb.w	r0, [r5], #1
 8000cf4:	42ac      	cmp	r4, r5
 8000cf6:	d1f9      	bne.n	8000cec <SD_disk_ioctl+0x11c>
 8000cf8:	2404      	movs	r4, #4
 8000cfa:	e79e      	b.n	8000c3a <SD_disk_ioctl+0x6a>
 8000cfc:	2404      	movs	r4, #4
 8000cfe:	e77a      	b.n	8000bf6 <SD_disk_ioctl+0x26>
 8000d00:	2403      	movs	r4, #3
 8000d02:	e778      	b.n	8000bf6 <SD_disk_ioctl+0x26>
 8000d04:	2000019e 	.word	0x2000019e
 8000d08:	20000000 	.word	0x20000000

08000d0c <lcd_send_cmd>:
 8000d0c:	b51f      	push	{r0, r1, r2, r3, r4, lr}
 8000d0e:	f000 03f0 	and.w	r3, r0, #240	@ 0xf0
 8000d12:	0100      	lsls	r0, r0, #4
 8000d14:	f043 020c 	orr.w	r2, r3, #12
 8000d18:	b2c0      	uxtb	r0, r0
 8000d1a:	f043 0308 	orr.w	r3, r3, #8
 8000d1e:	f88d 300d 	strb.w	r3, [sp, #13]
 8000d22:	f040 030c 	orr.w	r3, r0, #12
 8000d26:	f88d 300e 	strb.w	r3, [sp, #14]
 8000d2a:	f040 0008 	orr.w	r0, r0, #8
 8000d2e:	2364      	movs	r3, #100	@ 0x64
 8000d30:	f88d 200c 	strb.w	r2, [sp, #12]
 8000d34:	f88d 000f 	strb.w	r0, [sp, #15]
 8000d38:	9300      	str	r3, [sp, #0]
 8000d3a:	aa03      	add	r2, sp, #12
 8000d3c:	2304      	movs	r3, #4
 8000d3e:	214e      	movs	r1, #78	@ 0x4e
 8000d40:	4802      	ldr	r0, [pc, #8]	@ (8000d4c <lcd_send_cmd+0x40>)
 8000d42:	f001 fa37 	bl	80021b4 <HAL_I2C_Master_Transmit>
 8000d46:	b005      	add	sp, #20
 8000d48:	f85d fb04 	ldr.w	pc, [sp], #4
 8000d4c:	20000268 	.word	0x20000268

08000d50 <lcd_send_data>:
 8000d50:	b51f      	push	{r0, r1, r2, r3, r4, lr}
 8000d52:	f000 03f0 	and.w	r3, r0, #240	@ 0xf0
 8000d56:	0100      	lsls	r0, r0, #4
 8000d58:	f043 020d 	orr.w	r2, r3, #13
 8000d5c:	b2c0      	uxtb	r0, r0
 8000d5e:	f043 0309 	orr.w	r3, r3, #9
 8000d62:	f88d 300d 	strb.w	r3, [sp, #13]
 8000d66:	f040 030d 	orr.w	r3, r0, #13
 8000d6a:	f88d 300e 	strb.w	r3, [sp, #14]
 8000d6e:	f040 0009 	orr.w	r0, r0, #9
 8000d72:	2364      	movs	r3, #100	@ 0x64
 8000d74:	f88d 200c 	strb.w	r2, [sp, #12]
 8000d78:	f88d 000f 	strb.w	r0, [sp, #15]
 8000d7c:	9300      	str	r3, [sp, #0]
 8000d7e:	aa03      	add	r2, sp, #12
 8000d80:	2304      	movs	r3, #4
 8000d82:	214e      	movs	r1, #78	@ 0x4e
 8000d84:	4802      	ldr	r0, [pc, #8]	@ (8000d90 <lcd_send_data+0x40>)
 8000d86:	f001 fa15 	bl	80021b4 <HAL_I2C_Master_Transmit>
 8000d8a:	b005      	add	sp, #20
 8000d8c:	f85d fb04 	ldr.w	pc, [sp], #4
 8000d90:	20000268 	.word	0x20000268

08000d94 <lcd_clear>:
 8000d94:	b510      	push	{r4, lr}
 8000d96:	2080      	movs	r0, #128	@ 0x80
 8000d98:	f7ff ffb8 	bl	8000d0c <lcd_send_cmd>
 8000d9c:	2446      	movs	r4, #70	@ 0x46
 8000d9e:	2020      	movs	r0, #32
 8000da0:	f7ff ffd6 	bl	8000d50 <lcd_send_data>
 8000da4:	3c01      	subs	r4, #1
 8000da6:	d1fa      	bne.n	8000d9e <lcd_clear+0xa>
 8000da8:	bd10      	pop	{r4, pc}

08000daa <lcd_put_cur>:
 8000daa:	b120      	cbz	r0, 8000db6 <lcd_put_cur+0xc>
 8000dac:	2801      	cmp	r0, #1
 8000dae:	d005      	beq.n	8000dbc <lcd_put_cur+0x12>
 8000db0:	b2c8      	uxtb	r0, r1
 8000db2:	f7ff bfab 	b.w	8000d0c <lcd_send_cmd>
 8000db6:	f041 0180 	orr.w	r1, r1, #128	@ 0x80
 8000dba:	e7f9      	b.n	8000db0 <lcd_put_cur+0x6>
 8000dbc:	f041 01c0 	orr.w	r1, r1, #192	@ 0xc0
 8000dc0:	e7f6      	b.n	8000db0 <lcd_put_cur+0x6>

08000dc2 <lcd_init>:
 8000dc2:	b508      	push	{r3, lr}
 8000dc4:	2032      	movs	r0, #50	@ 0x32
 8000dc6:	f000 feb9 	bl	8001b3c <HAL_Delay>
 8000dca:	2030      	movs	r0, #48	@ 0x30
 8000dcc:	f7ff ff9e 	bl	8000d0c <lcd_send_cmd>
 8000dd0:	2005      	movs	r0, #5
 8000dd2:	f000 feb3 	bl	8001b3c <HAL_Delay>
 8000dd6:	2030      	movs	r0, #48	@ 0x30
 8000dd8:	f7ff ff98 	bl	8000d0c <lcd_send_cmd>
 8000ddc:	2001      	movs	r0, #1
 8000dde:	f000 fead 	bl	8001b3c <HAL_Delay>
 8000de2:	2030      	movs	r0, #48	@ 0x30
 8000de4:	f7ff ff92 	bl	8000d0c <lcd_send_cmd>
 8000de8:	200a      	movs	r0, #10
 8000dea:	f000 fea7 	bl	8001b3c <HAL_Delay>
 8000dee:	2020      	movs	r0, #32
 8000df0:	f7ff ff8c 	bl	8000d0c <lcd_send_cmd>
 8000df4:	200a      	movs	r0, #10
 8000df6:	f000 fea1 	bl	8001b3c <HAL_Delay>
 8000dfa:	2028      	movs	r0, #40	@ 0x28
 8000dfc:	f7ff ff86 	bl	8000d0c <lcd_send_cmd>
 8000e00:	2001      	movs	r0, #1
 8000e02:	f000 fe9b 	bl	8001b3c <HAL_Delay>
 8000e06:	2008      	movs	r0, #8
 8000e08:	f7ff ff80 	bl	8000d0c <lcd_send_cmd>
 8000e0c:	2001      	movs	r0, #1
 8000e0e:	f000 fe95 	bl	8001b3c <HAL_Delay>
 8000e12:	2001      	movs	r0, #1
 8000e14:	f7ff ff7a 	bl	8000d0c <lcd_send_cmd>
 8000e18:	2001      	movs	r0, #1
 8000e1a:	f000 fe8f 	bl	8001b3c <HAL_Delay>
 8000e1e:	2001      	movs	r0, #1
 8000e20:	f000 fe8c 	bl	8001b3c <HAL_Delay>
 8000e24:	2006      	movs	r0, #6
 8000e26:	f7ff ff71 	bl	8000d0c <lcd_send_cmd>
 8000e2a:	2001      	movs	r0, #1
 8000e2c:	f000 fe86 	bl	8001b3c <HAL_Delay>
 8000e30:	e8bd 4008 	ldmia.w	sp!, {r3, lr}
 8000e34:	200c      	movs	r0, #12
 8000e36:	f7ff bf69 	b.w	8000d0c <lcd_send_cmd>

08000e3a <lcd_send_string>:
 8000e3a:	b510      	push	{r4, lr}
 8000e3c:	1e44      	subs	r4, r0, #1
 8000e3e:	f814 0f01 	ldrb.w	r0, [r4, #1]!
 8000e42:	b900      	cbnz	r0, 8000e46 <lcd_send_string+0xc>
 8000e44:	bd10      	pop	{r4, pc}
 8000e46:	f7ff ff83 	bl	8000d50 <lcd_send_data>
 8000e4a:	e7f8      	b.n	8000e3e <lcd_send_string+0x4>

08000e4c <setDateTimeDisplay>:
 8000e4c:	b510      	push	{r4, lr}
 8000e4e:	2410      	movs	r4, #16
 8000e50:	b086      	sub	sp, #24
 8000e52:	4622      	mov	r2, r4
 8000e54:	2100      	movs	r1, #0
 8000e56:	a802      	add	r0, sp, #8
 8000e58:	f004 fa5e 	bl	8005318 <memset>
 8000e5c:	4a12      	ldr	r2, [pc, #72]	@ (8000ea8 <setDateTimeDisplay+0x5c>)
 8000e5e:	4913      	ldr	r1, [pc, #76]	@ (8000eac <setDateTimeDisplay+0x60>)
 8000e60:	78d3      	ldrb	r3, [r2, #3]
 8000e62:	9300      	str	r3, [sp, #0]
 8000e64:	7853      	ldrb	r3, [r2, #1]
 8000e66:	7892      	ldrb	r2, [r2, #2]
 8000e68:	a802      	add	r0, sp, #8
 8000e6a:	f004 fa35 	bl	80052d8 <siprintf>
 8000e6e:	20c0      	movs	r0, #192	@ 0xc0
 8000e70:	f7ff ff4c 	bl	8000d0c <lcd_send_cmd>
 8000e74:	a802      	add	r0, sp, #8
 8000e76:	f7ff ffe0 	bl	8000e3a <lcd_send_string>
 8000e7a:	4622      	mov	r2, r4
 8000e7c:	2100      	movs	r1, #0
 8000e7e:	a802      	add	r0, sp, #8
 8000e80:	f004 fa4a 	bl	8005318 <memset>
 8000e84:	4a0a      	ldr	r2, [pc, #40]	@ (8000eb0 <setDateTimeDisplay+0x64>)
 8000e86:	490b      	ldr	r1, [pc, #44]	@ (8000eb4 <setDateTimeDisplay+0x68>)
 8000e88:	7893      	ldrb	r3, [r2, #2]
 8000e8a:	9300      	str	r3, [sp, #0]
 8000e8c:	7853      	ldrb	r3, [r2, #1]
 8000e8e:	7812      	ldrb	r2, [r2, #0]
 8000e90:	a802      	add	r0, sp, #8
 8000e92:	f004 fa21 	bl	80052d8 <siprintf>
 8000e96:	2080      	movs	r0, #128	@ 0x80
 8000e98:	f7ff ff38 	bl	8000d0c <lcd_send_cmd>
 8000e9c:	a802      	add	r0, sp, #8
 8000e9e:	f7ff ffcc 	bl	8000e3a <lcd_send_string>
 8000ea2:	b006      	add	sp, #24
 8000ea4:	bd10      	pop	{r4, pc}
 8000ea6:	bf00      	nop
 8000ea8:	200001a4 	.word	0x200001a4
 8000eac:	08005c3c 	.word	0x08005c3c
 8000eb0:	200001a8 	.word	0x200001a8
 8000eb4:	08005c52 	.word	0x08005c52

08000eb8 <ReadButton>:
 8000eb8:	b570      	push	{r4, r5, r6, lr}
 8000eba:	4605      	mov	r5, r0
 8000ebc:	460e      	mov	r6, r1
 8000ebe:	480f      	ldr	r0, [pc, #60]	@ (8000efc <ReadButton+0x44>)
 8000ec0:	f44f 7100 	mov.w	r1, #512	@ 0x200
 8000ec4:	f000 ffd5 	bl	8001e72 <HAL_GPIO_TogglePin>
 8000ec8:	4631      	mov	r1, r6
 8000eca:	4628      	mov	r0, r5
 8000ecc:	f000 ffc6 	bl	8001e5c <HAL_GPIO_ReadPin>
 8000ed0:	2801      	cmp	r0, #1
 8000ed2:	d111      	bne.n	8000ef8 <ReadButton+0x40>
 8000ed4:	204b      	movs	r0, #75	@ 0x4b
 8000ed6:	f000 fe31 	bl	8001b3c <HAL_Delay>
 8000eda:	4631      	mov	r1, r6
 8000edc:	4628      	mov	r0, r5
 8000ede:	f000 ffbd 	bl	8001e5c <HAL_GPIO_ReadPin>
 8000ee2:	2801      	cmp	r0, #1
 8000ee4:	4604      	mov	r4, r0
 8000ee6:	d107      	bne.n	8000ef8 <ReadButton+0x40>
 8000ee8:	4631      	mov	r1, r6
 8000eea:	4628      	mov	r0, r5
 8000eec:	f000 ffb6 	bl	8001e5c <HAL_GPIO_ReadPin>
 8000ef0:	2800      	cmp	r0, #0
 8000ef2:	d0f9      	beq.n	8000ee8 <ReadButton+0x30>
 8000ef4:	4620      	mov	r0, r4
 8000ef6:	bd70      	pop	{r4, r5, r6, pc}
 8000ef8:	2400      	movs	r4, #0
 8000efa:	e7fb      	b.n	8000ef4 <ReadButton+0x3c>
 8000efc:	40020400 	.word	0x40020400

08000f00 <EditDate>:
 8000f00:	e92d 41ff 	stmdb	sp!, {r0, r1, r2, r3, r4, r5, r6, r7, r8, lr}
 8000f04:	f7ff ff46 	bl	8000d94 <lcd_clear>
 8000f08:	4a9e      	ldr	r2, [pc, #632]	@ (8001184 <EditDate+0x284>)
 8000f0a:	4f9f      	ldr	r7, [pc, #636]	@ (8001188 <EditDate+0x288>)
 8000f0c:	6810      	ldr	r0, [r2, #0]
 8000f0e:	6851      	ldr	r1, [r2, #4]
 8000f10:	4e9e      	ldr	r6, [pc, #632]	@ (800118c <EditDate+0x28c>)
 8000f12:	4d9f      	ldr	r5, [pc, #636]	@ (8001190 <EditDate+0x290>)
 8000f14:	ab01      	add	r3, sp, #4
 8000f16:	c303      	stmia	r3!, {r0, r1}
 8000f18:	6890      	ldr	r0, [r2, #8]
 8000f1a:	6018      	str	r0, [r3, #0]
 8000f1c:	2400      	movs	r4, #0
 8000f1e:	f7ff ff95 	bl	8000e4c <setDateTimeDisplay>
 8000f22:	f44f 7100 	mov.w	r1, #512	@ 0x200
 8000f26:	4638      	mov	r0, r7
 8000f28:	f000 ffa3 	bl	8001e72 <HAL_GPIO_TogglePin>
 8000f2c:	ab04      	add	r3, sp, #16
 8000f2e:	eb03 0344 	add.w	r3, r3, r4, lsl #1
 8000f32:	f813 0c0c 	ldrb.w	r0, [r3, #-12]
 8000f36:	f040 0080 	orr.w	r0, r0, #128	@ 0x80
 8000f3a:	f7ff fee7 	bl	8000d0c <lcd_send_cmd>
 8000f3e:	f000 fdf7 	bl	8001b30 <HAL_GetTick>
 8000f42:	6833      	ldr	r3, [r6, #0]
 8000f44:	1ac0      	subs	r0, r0, r3
 8000f46:	f5b0 7ffa 	cmp.w	r0, #500	@ 0x1f4
 8000f4a:	d90b      	bls.n	8000f64 <EditDate+0x64>
 8000f4c:	200e      	movs	r0, #14
 8000f4e:	f7ff fedd 	bl	8000d0c <lcd_send_cmd>
 8000f52:	20fa      	movs	r0, #250	@ 0xfa
 8000f54:	f000 fdf2 	bl	8001b3c <HAL_Delay>
 8000f58:	200f      	movs	r0, #15
 8000f5a:	f7ff fed7 	bl	8000d0c <lcd_send_cmd>
 8000f5e:	f000 fde7 	bl	8001b30 <HAL_GetTick>
 8000f62:	6030      	str	r0, [r6, #0]
 8000f64:	2104      	movs	r1, #4
 8000f66:	4628      	mov	r0, r5
 8000f68:	f7ff ffa6 	bl	8000eb8 <ReadButton>
 8000f6c:	b130      	cbz	r0, 8000f7c <EditDate+0x7c>
 8000f6e:	3405      	adds	r4, #5
 8000f70:	2306      	movs	r3, #6
 8000f72:	fbb4 f2f3 	udiv	r2, r4, r3
 8000f76:	fb03 4412 	mls	r4, r3, r2, r4
 8000f7a:	b2e4      	uxtb	r4, r4
 8000f7c:	2102      	movs	r1, #2
 8000f7e:	4628      	mov	r0, r5
 8000f80:	f7ff ff9a 	bl	8000eb8 <ReadButton>
 8000f84:	b138      	cbz	r0, 8000f96 <EditDate+0x96>
 8000f86:	3401      	adds	r4, #1
 8000f88:	b2e4      	uxtb	r4, r4
 8000f8a:	2306      	movs	r3, #6
 8000f8c:	fbb4 f2f3 	udiv	r2, r4, r3
 8000f90:	fb03 4412 	mls	r4, r3, r2, r4
 8000f94:	b2e4      	uxtb	r4, r4
 8000f96:	2110      	movs	r1, #16
 8000f98:	4628      	mov	r0, r5
 8000f9a:	f7ff ff8d 	bl	8000eb8 <ReadButton>
 8000f9e:	b150      	cbz	r0, 8000fb6 <EditDate+0xb6>
 8000fa0:	2c00      	cmp	r4, #0
 8000fa2:	d142      	bne.n	800102a <EditDate+0x12a>
 8000fa4:	4a7b      	ldr	r2, [pc, #492]	@ (8001194 <EditDate+0x294>)
 8000fa6:	7813      	ldrb	r3, [r2, #0]
 8000fa8:	2118      	movs	r1, #24
 8000faa:	3301      	adds	r3, #1
 8000fac:	fbb3 f0f1 	udiv	r0, r3, r1
 8000fb0:	fb01 3310 	mls	r3, r1, r0, r3
 8000fb4:	7013      	strb	r3, [r2, #0]
 8000fb6:	2108      	movs	r1, #8
 8000fb8:	4628      	mov	r0, r5
 8000fba:	f7ff ff7d 	bl	8000eb8 <ReadButton>
 8000fbe:	b150      	cbz	r0, 8000fd6 <EditDate+0xd6>
 8000fc0:	2c00      	cmp	r4, #0
 8000fc2:	d16e      	bne.n	80010a2 <EditDate+0x1a2>
 8000fc4:	4a73      	ldr	r2, [pc, #460]	@ (8001194 <EditDate+0x294>)
 8000fc6:	7813      	ldrb	r3, [r2, #0]
 8000fc8:	2118      	movs	r1, #24
 8000fca:	3317      	adds	r3, #23
 8000fcc:	fbb3 f0f1 	udiv	r0, r3, r1
 8000fd0:	fb01 3310 	mls	r3, r1, r0, r3
 8000fd4:	7013      	strb	r3, [r2, #0]
 8000fd6:	2104      	movs	r1, #4
 8000fd8:	4628      	mov	r0, r5
 8000fda:	f000 ff3f 	bl	8001e5c <HAL_GPIO_ReadPin>
 8000fde:	2801      	cmp	r0, #1
 8000fe0:	f000 8099 	beq.w	8001116 <EditDate+0x216>
 8000fe4:	2101      	movs	r1, #1
 8000fe6:	4628      	mov	r0, r5
 8000fe8:	f000 ff38 	bl	8001e5c <HAL_GPIO_ReadPin>
 8000fec:	2801      	cmp	r0, #1
 8000fee:	4680      	mov	r8, r0
 8000ff0:	f040 80be 	bne.w	8001170 <EditDate+0x270>
 8000ff4:	2102      	movs	r1, #2
 8000ff6:	4628      	mov	r0, r5
 8000ff8:	f000 ff30 	bl	8001e5c <HAL_GPIO_ReadPin>
 8000ffc:	2800      	cmp	r0, #0
 8000ffe:	f040 80b7 	bne.w	8001170 <EditDate+0x270>
 8001002:	2032      	movs	r0, #50	@ 0x32
 8001004:	f000 fd9a 	bl	8001b3c <HAL_Delay>
 8001008:	4641      	mov	r1, r8
 800100a:	4628      	mov	r0, r5
 800100c:	f000 ff26 	bl	8001e5c <HAL_GPIO_ReadPin>
 8001010:	2801      	cmp	r0, #1
 8001012:	f040 80ad 	bne.w	8001170 <EditDate+0x270>
 8001016:	485e      	ldr	r0, [pc, #376]	@ (8001190 <EditDate+0x290>)
 8001018:	2102      	movs	r1, #2
 800101a:	f000 ff1f 	bl	8001e5c <HAL_GPIO_ReadPin>
 800101e:	f1b0 0800 	subs.w	r8, r0, #0
 8001022:	bf18      	it	ne
 8001024:	f04f 0801 	movne.w	r8, #1
 8001028:	e0a4      	b.n	8001174 <EditDate+0x274>
 800102a:	2c01      	cmp	r4, #1
 800102c:	d109      	bne.n	8001042 <EditDate+0x142>
 800102e:	4a59      	ldr	r2, [pc, #356]	@ (8001194 <EditDate+0x294>)
 8001030:	7853      	ldrb	r3, [r2, #1]
 8001032:	213c      	movs	r1, #60	@ 0x3c
 8001034:	3301      	adds	r3, #1
 8001036:	fbb3 f0f1 	udiv	r0, r3, r1
 800103a:	fb01 3310 	mls	r3, r1, r0, r3
 800103e:	7053      	strb	r3, [r2, #1]
 8001040:	e7b9      	b.n	8000fb6 <EditDate+0xb6>
 8001042:	2c02      	cmp	r4, #2
 8001044:	d109      	bne.n	800105a <EditDate+0x15a>
 8001046:	4a53      	ldr	r2, [pc, #332]	@ (8001194 <EditDate+0x294>)
 8001048:	7893      	ldrb	r3, [r2, #2]
 800104a:	213c      	movs	r1, #60	@ 0x3c
 800104c:	3301      	adds	r3, #1
 800104e:	fbb3 f0f1 	udiv	r0, r3, r1
 8001052:	fb01 3310 	mls	r3, r1, r0, r3
 8001056:	7093      	strb	r3, [r2, #2]
 8001058:	e7ad      	b.n	8000fb6 <EditDate+0xb6>
 800105a:	2c03      	cmp	r4, #3
 800105c:	d10a      	bne.n	8001074 <EditDate+0x174>
 800105e:	494e      	ldr	r1, [pc, #312]	@ (8001198 <EditDate+0x298>)
 8001060:	788b      	ldrb	r3, [r1, #2]
 8001062:	221f      	movs	r2, #31
 8001064:	fbb3 f2f2 	udiv	r2, r3, r2
 8001068:	ebc2 1242 	rsb	r2, r2, r2, lsl #5
 800106c:	1a9b      	subs	r3, r3, r2
 800106e:	3301      	adds	r3, #1
 8001070:	708b      	strb	r3, [r1, #2]
 8001072:	e7a0      	b.n	8000fb6 <EditDate+0xb6>
 8001074:	2c04      	cmp	r4, #4
 8001076:	d108      	bne.n	800108a <EditDate+0x18a>
 8001078:	4a47      	ldr	r2, [pc, #284]	@ (8001198 <EditDate+0x298>)
 800107a:	7853      	ldrb	r3, [r2, #1]
 800107c:	210c      	movs	r1, #12
 800107e:	fbb3 f0f1 	udiv	r0, r3, r1
 8001082:	fb01 3310 	mls	r3, r1, r0, r3
 8001086:	3301      	adds	r3, #1
 8001088:	e7d9      	b.n	800103e <EditDate+0x13e>
 800108a:	2c05      	cmp	r4, #5
 800108c:	d193      	bne.n	8000fb6 <EditDate+0xb6>
 800108e:	4a42      	ldr	r2, [pc, #264]	@ (8001198 <EditDate+0x298>)
 8001090:	78d3      	ldrb	r3, [r2, #3]
 8001092:	2164      	movs	r1, #100	@ 0x64
 8001094:	3301      	adds	r3, #1
 8001096:	fbb3 f0f1 	udiv	r0, r3, r1
 800109a:	fb01 3310 	mls	r3, r1, r0, r3
 800109e:	70d3      	strb	r3, [r2, #3]
 80010a0:	e789      	b.n	8000fb6 <EditDate+0xb6>
 80010a2:	2c01      	cmp	r4, #1
 80010a4:	d109      	bne.n	80010ba <EditDate+0x1ba>
 80010a6:	4a3b      	ldr	r2, [pc, #236]	@ (8001194 <EditDate+0x294>)
 80010a8:	7853      	ldrb	r3, [r2, #1]
 80010aa:	213c      	movs	r1, #60	@ 0x3c
 80010ac:	333b      	adds	r3, #59	@ 0x3b
 80010ae:	fbb3 f0f1 	udiv	r0, r3, r1
 80010b2:	fb01 3310 	mls	r3, r1, r0, r3
 80010b6:	7053      	strb	r3, [r2, #1]
 80010b8:	e78d      	b.n	8000fd6 <EditDate+0xd6>
 80010ba:	2c02      	cmp	r4, #2
 80010bc:	d109      	bne.n	80010d2 <EditDate+0x1d2>
 80010be:	4a35      	ldr	r2, [pc, #212]	@ (8001194 <EditDate+0x294>)
 80010c0:	7893      	ldrb	r3, [r2, #2]
 80010c2:	213c      	movs	r1, #60	@ 0x3c
 80010c4:	333b      	adds	r3, #59	@ 0x3b
 80010c6:	fbb3 f0f1 	udiv	r0, r3, r1
 80010ca:	fb01 3310 	mls	r3, r1, r0, r3
 80010ce:	7093      	strb	r3, [r2, #2]
 80010d0:	e781      	b.n	8000fd6 <EditDate+0xd6>
 80010d2:	2c03      	cmp	r4, #3
 80010d4:	d108      	bne.n	80010e8 <EditDate+0x1e8>
 80010d6:	4a30      	ldr	r2, [pc, #192]	@ (8001198 <EditDate+0x298>)
 80010d8:	7893      	ldrb	r3, [r2, #2]
 80010da:	2b01      	cmp	r3, #1
 80010dc:	bf1a      	itte	ne
 80010de:	f103 33ff 	addne.w	r3, r3, #4294967295
 80010e2:	b2db      	uxtbne	r3, r3
 80010e4:	231f      	moveq	r3, #31
 80010e6:	e7f2      	b.n	80010ce <EditDate+0x1ce>
 80010e8:	2c04      	cmp	r4, #4
 80010ea:	d108      	bne.n	80010fe <EditDate+0x1fe>
 80010ec:	4a2a      	ldr	r2, [pc, #168]	@ (8001198 <EditDate+0x298>)
 80010ee:	7853      	ldrb	r3, [r2, #1]
 80010f0:	2b01      	cmp	r3, #1
 80010f2:	bf1a      	itte	ne
 80010f4:	f103 33ff 	addne.w	r3, r3, #4294967295
 80010f8:	b2db      	uxtbne	r3, r3
 80010fa:	230c      	moveq	r3, #12
 80010fc:	e7db      	b.n	80010b6 <EditDate+0x1b6>
 80010fe:	2c05      	cmp	r4, #5
 8001100:	f47f af69 	bne.w	8000fd6 <EditDate+0xd6>
 8001104:	4a24      	ldr	r2, [pc, #144]	@ (8001198 <EditDate+0x298>)
 8001106:	78d3      	ldrb	r3, [r2, #3]
 8001108:	b11b      	cbz	r3, 8001112 <EditDate+0x212>
 800110a:	3b01      	subs	r3, #1
 800110c:	b2db      	uxtb	r3, r3
 800110e:	70d3      	strb	r3, [r2, #3]
 8001110:	e761      	b.n	8000fd6 <EditDate+0xd6>
 8001112:	2363      	movs	r3, #99	@ 0x63
 8001114:	e7fb      	b.n	800110e <EditDate+0x20e>
 8001116:	2102      	movs	r1, #2
 8001118:	4628      	mov	r0, r5
 800111a:	f000 fe9f 	bl	8001e5c <HAL_GPIO_ReadPin>
 800111e:	2801      	cmp	r0, #1
 8001120:	f47f af60 	bne.w	8000fe4 <EditDate+0xe4>
 8001124:	2032      	movs	r0, #50	@ 0x32
 8001126:	f000 fd09 	bl	8001b3c <HAL_Delay>
 800112a:	2104      	movs	r1, #4
 800112c:	4628      	mov	r0, r5
 800112e:	f000 fe95 	bl	8001e5c <HAL_GPIO_ReadPin>
 8001132:	2801      	cmp	r0, #1
 8001134:	f47f af56 	bne.w	8000fe4 <EditDate+0xe4>
 8001138:	4815      	ldr	r0, [pc, #84]	@ (8001190 <EditDate+0x290>)
 800113a:	2102      	movs	r1, #2
 800113c:	f000 fe8e 	bl	8001e5c <HAL_GPIO_ReadPin>
 8001140:	2801      	cmp	r0, #1
 8001142:	f47f af4f 	bne.w	8000fe4 <EditDate+0xe4>
 8001146:	200c      	movs	r0, #12
 8001148:	f7ff fde0 	bl	8000d0c <lcd_send_cmd>
 800114c:	f7ff fe22 	bl	8000d94 <lcd_clear>
 8001150:	20c8      	movs	r0, #200	@ 0xc8
 8001152:	f000 fcf3 	bl	8001b3c <HAL_Delay>
 8001156:	4910      	ldr	r1, [pc, #64]	@ (8001198 <EditDate+0x298>)
 8001158:	4810      	ldr	r0, [pc, #64]	@ (800119c <EditDate+0x29c>)
 800115a:	2200      	movs	r2, #0
 800115c:	f001 fd96 	bl	8002c8c <HAL_RTC_SetDate>
 8001160:	490c      	ldr	r1, [pc, #48]	@ (8001194 <EditDate+0x294>)
 8001162:	480e      	ldr	r0, [pc, #56]	@ (800119c <EditDate+0x29c>)
 8001164:	2200      	movs	r2, #0
 8001166:	b004      	add	sp, #16
 8001168:	e8bd 41f0 	ldmia.w	sp!, {r4, r5, r6, r7, r8, lr}
 800116c:	f001 bd34 	b.w	8002bd8 <HAL_RTC_SetTime>
 8001170:	f04f 0801 	mov.w	r8, #1
 8001174:	480a      	ldr	r0, [pc, #40]	@ (80011a0 <EditDate+0x2a0>)
 8001176:	f001 f8f7 	bl	8002368 <HAL_IWDG_Refresh>
 800117a:	f1b8 0f00 	cmp.w	r8, #0
 800117e:	f47f aece 	bne.w	8000f1e <EditDate+0x1e>
 8001182:	e7e0      	b.n	8001146 <EditDate+0x246>
 8001184:	08005c30 	.word	0x08005c30
 8001188:	40020400 	.word	0x40020400
 800118c:	200001a0 	.word	0x200001a0
 8001190:	40020000 	.word	0x40020000
 8001194:	200001a8 	.word	0x200001a8
 8001198:	200001a4 	.word	0x200001a4
 800119c:	200002e4 	.word	0x200002e4
 80011a0:	2000025c 	.word	0x2000025c

080011a4 <SystemClock_Config>:
 80011a4:	b530      	push	{r4, r5, lr}
 80011a6:	b095      	sub	sp, #84	@ 0x54
 80011a8:	2214      	movs	r2, #20
 80011aa:	2100      	movs	r1, #0
 80011ac:	a803      	add	r0, sp, #12
 80011ae:	f004 f8b3 	bl	8005318 <memset>
 80011b2:	4b24      	ldr	r3, [pc, #144]	@ (8001244 <SystemClock_Config+0xa0>)
 80011b4:	2100      	movs	r1, #0
 80011b6:	9101      	str	r1, [sp, #4]
 80011b8:	6c1a      	ldr	r2, [r3, #64]	@ 0x40
 80011ba:	f042 5280 	orr.w	r2, r2, #268435456	@ 0x10000000
 80011be:	641a      	str	r2, [r3, #64]	@ 0x40
 80011c0:	6c1b      	ldr	r3, [r3, #64]	@ 0x40
 80011c2:	f003 5380 	and.w	r3, r3, #268435456	@ 0x10000000
 80011c6:	9301      	str	r3, [sp, #4]
 80011c8:	9b01      	ldr	r3, [sp, #4]
 80011ca:	4b1f      	ldr	r3, [pc, #124]	@ (8001248 <SystemClock_Config+0xa4>)
 80011cc:	9102      	str	r1, [sp, #8]
 80011ce:	681a      	ldr	r2, [r3, #0]
 80011d0:	f442 4240 	orr.w	r2, r2, #49152	@ 0xc000
 80011d4:	601a      	str	r2, [r3, #0]
 80011d6:	681b      	ldr	r3, [r3, #0]
 80011d8:	f403 4340 	and.w	r3, r3, #49152	@ 0xc000
 80011dc:	9302      	str	r3, [sp, #8]
 80011de:	9b02      	ldr	r3, [sp, #8]
 80011e0:	250f      	movs	r5, #15
 80011e2:	f44f 3380 	mov.w	r3, #65536	@ 0x10000
 80011e6:	2210      	movs	r2, #16
 80011e8:	e9cd 5308 	strd	r5, r3, [sp, #32]
 80011ec:	2301      	movs	r3, #1
 80011ee:	e9cd 230c 	strd	r2, r3, [sp, #48]	@ 0x30
 80011f2:	2402      	movs	r4, #2
 80011f4:	e9cd 330a 	strd	r3, r3, [sp, #40]	@ 0x28
 80011f8:	f44f 0380 	mov.w	r3, #4194304	@ 0x400000
 80011fc:	e9cd 430e 	strd	r4, r3, [sp, #56]	@ 0x38
 8001200:	220c      	movs	r2, #12
 8001202:	2360      	movs	r3, #96	@ 0x60
 8001204:	e9cd 2310 	strd	r2, r3, [sp, #64]	@ 0x40
 8001208:	a808      	add	r0, sp, #32
 800120a:	2304      	movs	r3, #4
 800120c:	9412      	str	r4, [sp, #72]	@ 0x48
 800120e:	9313      	str	r3, [sp, #76]	@ 0x4c
 8001210:	f001 f8be 	bl	8002390 <HAL_RCC_OscConfig>
 8001214:	b108      	cbz	r0, 800121a <SystemClock_Config+0x76>
 8001216:	b672      	cpsid	i
 8001218:	e7fe      	b.n	8001218 <SystemClock_Config+0x74>
 800121a:	f44f 5380 	mov.w	r3, #4096	@ 0x1000
 800121e:	e9cd 3006 	strd	r3, r0, [sp, #24]
 8001222:	9005      	str	r0, [sp, #20]
 8001224:	2103      	movs	r1, #3
 8001226:	a803      	add	r0, sp, #12
 8001228:	e9cd 5403 	strd	r5, r4, [sp, #12]
 800122c:	f001 fad8 	bl	80027e0 <HAL_RCC_ClockConfig>
 8001230:	4602      	mov	r2, r0
 8001232:	b108      	cbz	r0, 8001238 <SystemClock_Config+0x94>
 8001234:	b672      	cpsid	i
 8001236:	e7fe      	b.n	8001236 <SystemClock_Config+0x92>
 8001238:	4601      	mov	r1, r0
 800123a:	f001 fa57 	bl	80026ec <HAL_RCC_MCOConfig>
 800123e:	b015      	add	sp, #84	@ 0x54
 8001240:	bd30      	pop	{r4, r5, pc}
 8001242:	bf00      	nop
 8001244:	40023800 	.word	0x40023800
 8001248:	40007000 	.word	0x40007000

0800124c <main>:
 800124c:	b500      	push	{lr}
 800124e:	b08b      	sub	sp, #44	@ 0x2c
 8001250:	f000 fc48 	bl	8001ae4 <HAL_Init>
 8001254:	f7ff ffa6 	bl	80011a4 <SystemClock_Config>
 8001258:	2214      	movs	r2, #20
 800125a:	2100      	movs	r1, #0
 800125c:	eb0d 0002 	add.w	r0, sp, r2
 8001260:	f004 f85a 	bl	8005318 <memset>
 8001264:	2400      	movs	r4, #0
 8001266:	4b61      	ldr	r3, [pc, #388]	@ (80013ec <main+0x1a0>)
 8001268:	9401      	str	r4, [sp, #4]
 800126a:	6b1a      	ldr	r2, [r3, #48]	@ 0x30
 800126c:	4860      	ldr	r0, [pc, #384]	@ (80013f0 <main+0x1a4>)
 800126e:	f042 0204 	orr.w	r2, r2, #4
 8001272:	631a      	str	r2, [r3, #48]	@ 0x30
 8001274:	6b1a      	ldr	r2, [r3, #48]	@ 0x30
 8001276:	f002 0204 	and.w	r2, r2, #4
 800127a:	9201      	str	r2, [sp, #4]
 800127c:	9a01      	ldr	r2, [sp, #4]
 800127e:	9402      	str	r4, [sp, #8]
 8001280:	6b1a      	ldr	r2, [r3, #48]	@ 0x30
 8001282:	f042 0280 	orr.w	r2, r2, #128	@ 0x80
 8001286:	631a      	str	r2, [r3, #48]	@ 0x30
 8001288:	6b1a      	ldr	r2, [r3, #48]	@ 0x30
 800128a:	f002 0280 	and.w	r2, r2, #128	@ 0x80
 800128e:	9202      	str	r2, [sp, #8]
 8001290:	9a02      	ldr	r2, [sp, #8]
 8001292:	9403      	str	r4, [sp, #12]
 8001294:	6b1a      	ldr	r2, [r3, #48]	@ 0x30
 8001296:	f042 0201 	orr.w	r2, r2, #1
 800129a:	631a      	str	r2, [r3, #48]	@ 0x30
 800129c:	6b1a      	ldr	r2, [r3, #48]	@ 0x30
 800129e:	f002 0201 	and.w	r2, r2, #1
 80012a2:	9203      	str	r2, [sp, #12]
 80012a4:	9a03      	ldr	r2, [sp, #12]
 80012a6:	9404      	str	r4, [sp, #16]
 80012a8:	6b1a      	ldr	r2, [r3, #48]	@ 0x30
 80012aa:	f042 0202 	orr.w	r2, r2, #2
 80012ae:	631a      	str	r2, [r3, #48]	@ 0x30
 80012b0:	6b1b      	ldr	r3, [r3, #48]	@ 0x30
 80012b2:	f003 0302 	and.w	r3, r3, #2
 80012b6:	9304      	str	r3, [sp, #16]
 80012b8:	4622      	mov	r2, r4
 80012ba:	f44f 5100 	mov.w	r1, #8192	@ 0x2000
 80012be:	9b04      	ldr	r3, [sp, #16]
 80012c0:	f000 fdd2 	bl	8001e68 <HAL_GPIO_WritePin>
 80012c4:	484b      	ldr	r0, [pc, #300]	@ (80013f4 <main+0x1a8>)
 80012c6:	4622      	mov	r2, r4
 80012c8:	f248 2101 	movw	r1, #33281	@ 0x8201
 80012cc:	f000 fdcc 	bl	8001e68 <HAL_GPIO_WritePin>
 80012d0:	4622      	mov	r2, r4
 80012d2:	4849      	ldr	r0, [pc, #292]	@ (80013f8 <main+0x1ac>)
 80012d4:	f44f 4100 	mov.w	r1, #32768	@ 0x8000
 80012d8:	f000 fdc6 	bl	8001e68 <HAL_GPIO_WritePin>
 80012dc:	2601      	movs	r6, #1
 80012de:	f44f 5300 	mov.w	r3, #8192	@ 0x2000
 80012e2:	4843      	ldr	r0, [pc, #268]	@ (80013f0 <main+0x1a4>)
 80012e4:	a905      	add	r1, sp, #20
 80012e6:	2502      	movs	r5, #2
 80012e8:	e9cd 3605 	strd	r3, r6, [sp, #20]
 80012ec:	e9cd 4407 	strd	r4, r4, [sp, #28]
 80012f0:	f000 fcee 	bl	8001cd0 <HAL_GPIO_Init>
 80012f4:	231f      	movs	r3, #31
 80012f6:	4840      	ldr	r0, [pc, #256]	@ (80013f8 <main+0x1ac>)
 80012f8:	9507      	str	r5, [sp, #28]
 80012fa:	a905      	add	r1, sp, #20
 80012fc:	e9cd 3405 	strd	r3, r4, [sp, #20]
 8001300:	f000 fce6 	bl	8001cd0 <HAL_GPIO_Init>
 8001304:	f248 2301 	movw	r3, #33281	@ 0x8201
 8001308:	483a      	ldr	r0, [pc, #232]	@ (80013f4 <main+0x1a8>)
 800130a:	a905      	add	r1, sp, #20
 800130c:	e9cd 3605 	strd	r3, r6, [sp, #20]
 8001310:	e9cd 4407 	strd	r4, r4, [sp, #28]
 8001314:	f000 fcdc 	bl	8001cd0 <HAL_GPIO_Init>
 8001318:	f44f 7380 	mov.w	r3, #256	@ 0x100
 800131c:	4836      	ldr	r0, [pc, #216]	@ (80013f8 <main+0x1ac>)
 800131e:	9409      	str	r4, [sp, #36]	@ 0x24
 8001320:	a905      	add	r1, sp, #20
 8001322:	e9cd 3505 	strd	r3, r5, [sp, #20]
 8001326:	e9cd 4407 	strd	r4, r4, [sp, #28]
 800132a:	f000 fcd1 	bl	8001cd0 <HAL_GPIO_Init>
 800132e:	f44f 4300 	mov.w	r3, #32768	@ 0x8000
 8001332:	4831      	ldr	r0, [pc, #196]	@ (80013f8 <main+0x1ac>)
 8001334:	4d31      	ldr	r5, [pc, #196]	@ (80013fc <main+0x1b0>)
 8001336:	a905      	add	r1, sp, #20
 8001338:	e9cd 3605 	strd	r3, r6, [sp, #20]
 800133c:	e9cd 4407 	strd	r4, r4, [sp, #28]
 8001340:	f000 fcc6 	bl	8001cd0 <HAL_GPIO_Init>
 8001344:	482e      	ldr	r0, [pc, #184]	@ (8001400 <main+0x1b4>)
 8001346:	f44f 7382 	mov.w	r3, #260	@ 0x104
 800134a:	e9c0 5300 	strd	r5, r3, [r0]
 800134e:	f44f 7c00 	mov.w	ip, #512	@ 0x200
 8001352:	2310      	movs	r3, #16
 8001354:	e9c0 c306 	strd	ip, r3, [r0, #24]
 8001358:	230a      	movs	r3, #10
 800135a:	e9c0 4402 	strd	r4, r4, [r0, #8]
 800135e:	e9c0 4404 	strd	r4, r4, [r0, #16]
 8001362:	e9c0 4408 	strd	r4, r4, [r0, #32]
 8001366:	6284      	str	r4, [r0, #40]	@ 0x28
 8001368:	62c3      	str	r3, [r0, #44]	@ 0x2c
 800136a:	f001 fdc1 	bl	8002ef0 <HAL_SPI_Init>
 800136e:	b108      	cbz	r0, 8001374 <main+0x128>
 8001370:	b672      	cpsid	i
 8001372:	e7fe      	b.n	8001372 <main+0x126>
 8001374:	4c23      	ldr	r4, [pc, #140]	@ (8001404 <main+0x1b8>)
 8001376:	4924      	ldr	r1, [pc, #144]	@ (8001408 <main+0x1bc>)
 8001378:	6120      	str	r0, [r4, #16]
 800137a:	f44f 33e1 	mov.w	r3, #115200	@ 0x1c200
 800137e:	e9c4 1300 	strd	r1, r3, [r4]
 8001382:	230c      	movs	r3, #12
 8001384:	e9c4 0002 	strd	r0, r0, [r4, #8]
 8001388:	e9c4 3005 	strd	r3, r0, [r4, #20]
 800138c:	61e0      	str	r0, [r4, #28]
 800138e:	4620      	mov	r0, r4
 8001390:	f002 f842 	bl	8003418 <HAL_UART_Init>
 8001394:	4605      	mov	r5, r0
 8001396:	b108      	cbz	r0, 800139c <main+0x150>
 8001398:	b672      	cpsid	i
 800139a:	e7fe      	b.n	800139a <main+0x14e>
 800139c:	f002 fa46 	bl	800382c <MX_FATFS_Init>
 80013a0:	481a      	ldr	r0, [pc, #104]	@ (800140c <main+0x1c0>)
 80013a2:	4b1b      	ldr	r3, [pc, #108]	@ (8001410 <main+0x1c4>)
 80013a4:	4a1b      	ldr	r2, [pc, #108]	@ (8001414 <main+0x1c8>)
 80013a6:	6205      	str	r5, [r0, #32]
 80013a8:	e9c0 2300 	strd	r2, r3, [r0]
 80013ac:	f44f 4380 	mov.w	r3, #16384	@ 0x4000
 80013b0:	e9c0 5502 	strd	r5, r5, [r0, #8]
 80013b4:	e9c0 3504 	strd	r3, r5, [r0, #16]
 80013b8:	e9c0 5506 	strd	r5, r5, [r0, #24]
 80013bc:	f000 fe52 	bl	8002064 <HAL_I2C_Init>
 80013c0:	b108      	cbz	r0, 80013c6 <main+0x17a>
 80013c2:	b672      	cpsid	i
 80013c4:	e7fe      	b.n	80013c4 <main+0x178>
 80013c6:	f000 f8b1 	bl	800152c <MX_RTC_Init>
 80013ca:	f7ff f921 	bl	8000610 <MainInit>
 80013ce:	f000 f8c7 	bl	8001560 <create_new_file>
 80013d2:	4620      	mov	r0, r4
 80013d4:	4910      	ldr	r1, [pc, #64]	@ (8001418 <main+0x1cc>)
 80013d6:	4c11      	ldr	r4, [pc, #68]	@ (800141c <main+0x1d0>)
 80013d8:	4632      	mov	r2, r6
 80013da:	f002 fa16 	bl	800380a <HAL_UART_Receive_IT>
 80013de:	f7ff f95b 	bl	8000698 <HandleButtonPress>
 80013e2:	4620      	mov	r0, r4
 80013e4:	f000 ffc0 	bl	8002368 <HAL_IWDG_Refresh>
 80013e8:	e7f9      	b.n	80013de <main+0x192>
 80013ea:	bf00      	nop
 80013ec:	40023800 	.word	0x40023800
 80013f0:	40020800 	.word	0x40020800
 80013f4:	40020400 	.word	0x40020400
 80013f8:	40020000 	.word	0x40020000
 80013fc:	40013000 	.word	0x40013000
 8001400:	20000204 	.word	0x20000204
 8001404:	200001bc 	.word	0x200001bc
 8001408:	40011000 	.word	0x40011000
 800140c:	20000268 	.word	0x20000268
 8001410:	000186a0 	.word	0x000186a0
 8001414:	40005400 	.word	0x40005400
 8001418:	20000096 	.word	0x20000096
 800141c:	2000025c 	.word	0x2000025c

08001420 <Error_Handler>:
 8001420:	b672      	cpsid	i
 8001422:	e7fe      	b.n	8001422 <Error_Handler+0x2>

08001424 <RTC_Backup_Write>:
 8001424:	4802      	ldr	r0, [pc, #8]	@ (8001430 <RTC_Backup_Write+0xc>)
 8001426:	f241 2234 	movw	r2, #4660	@ 0x1234
 800142a:	2101      	movs	r1, #1
 800142c:	f001 bcbe 	b.w	8002dac <HAL_RTCEx_BKUPWrite>
 8001430:	200002e4 	.word	0x200002e4

08001434 <RTC_Backup_Read>:
 8001434:	4801      	ldr	r0, [pc, #4]	@ (800143c <RTC_Backup_Read+0x8>)
 8001436:	2101      	movs	r1, #1
 8001438:	f001 bcbd 	b.w	8002db6 <HAL_RTCEx_BKUPRead>
 800143c:	200002e4 	.word	0x200002e4

08001440 <getDateTime>:
 8001440:	b530      	push	{r4, r5, lr}
 8001442:	2400      	movs	r4, #0
 8001444:	b089      	sub	sp, #36	@ 0x24
 8001446:	4d15      	ldr	r5, [pc, #84]	@ (800149c <getDateTime+0x5c>)
 8001448:	9402      	str	r4, [sp, #8]
 800144a:	4621      	mov	r1, r4
 800144c:	2214      	movs	r2, #20
 800144e:	a803      	add	r0, sp, #12
 8001450:	f003 ff62 	bl	8005318 <memset>
 8001454:	4622      	mov	r2, r4
 8001456:	a903      	add	r1, sp, #12
 8001458:	4628      	mov	r0, r5
 800145a:	f001 fc67 	bl	8002d2c <HAL_RTC_GetTime>
 800145e:	4622      	mov	r2, r4
 8001460:	a902      	add	r1, sp, #8
 8001462:	4628      	mov	r0, r5
 8001464:	f001 fc85 	bl	8002d72 <HAL_RTC_GetDate>
 8001468:	f89d 300e 	ldrb.w	r3, [sp, #14]
 800146c:	f89d 200c 	ldrb.w	r2, [sp, #12]
 8001470:	9300      	str	r3, [sp, #0]
 8001472:	490b      	ldr	r1, [pc, #44]	@ (80014a0 <getDateTime+0x60>)
 8001474:	f89d 300d 	ldrb.w	r3, [sp, #13]
 8001478:	480a      	ldr	r0, [pc, #40]	@ (80014a4 <getDateTime+0x64>)
 800147a:	f003 ff2d 	bl	80052d8 <siprintf>
 800147e:	f89d 300b 	ldrb.w	r3, [sp, #11]
 8001482:	f89d 200a 	ldrb.w	r2, [sp, #10]
 8001486:	4908      	ldr	r1, [pc, #32]	@ (80014a8 <getDateTime+0x68>)
 8001488:	4808      	ldr	r0, [pc, #32]	@ (80014ac <getDateTime+0x6c>)
 800148a:	f503 63fa 	add.w	r3, r3, #2000	@ 0x7d0
 800148e:	9300      	str	r3, [sp, #0]
 8001490:	f89d 3009 	ldrb.w	r3, [sp, #9]
 8001494:	f003 ff20 	bl	80052d8 <siprintf>
 8001498:	b009      	add	sp, #36	@ 0x24
 800149a:	bd30      	pop	{r4, r5, pc}
 800149c:	200002e4 	.word	0x200002e4
 80014a0:	08005c68 	.word	0x08005c68
 80014a4:	200000b8 	.word	0x200000b8
 80014a8:	08005c77 	.word	0x08005c77
 80014ac:	2000009a 	.word	0x2000009a

080014b0 <RTC_setTime>:
 80014b0:	b57f      	push	{r0, r1, r2, r3, r4, r5, r6, lr}
 80014b2:	2212      	movs	r2, #18
 80014b4:	2100      	movs	r1, #0
 80014b6:	f10d 0006 	add.w	r0, sp, #6
 80014ba:	f003 ff2d 	bl	8005318 <memset>
 80014be:	2316      	movs	r3, #22
 80014c0:	f88d 3004 	strb.w	r3, [sp, #4]
 80014c4:	2200      	movs	r2, #0
 80014c6:	231f      	movs	r3, #31
 80014c8:	a901      	add	r1, sp, #4
 80014ca:	4804      	ldr	r0, [pc, #16]	@ (80014dc <RTC_setTime+0x2c>)
 80014cc:	f88d 3005 	strb.w	r3, [sp, #5]
 80014d0:	f001 fb82 	bl	8002bd8 <HAL_RTC_SetTime>
 80014d4:	b007      	add	sp, #28
 80014d6:	f85d fb04 	ldr.w	pc, [sp], #4
 80014da:	bf00      	nop
 80014dc:	200002e4 	.word	0x200002e4

080014e0 <RTC_setDate>:
 80014e0:	b507      	push	{r0, r1, r2, lr}
 80014e2:	4b06      	ldr	r3, [pc, #24]	@ (80014fc <RTC_setDate+0x1c>)
 80014e4:	4806      	ldr	r0, [pc, #24]	@ (8001500 <RTC_setDate+0x20>)
 80014e6:	9301      	str	r3, [sp, #4]
 80014e8:	2201      	movs	r2, #1
 80014ea:	a901      	add	r1, sp, #4
 80014ec:	f001 fbce 	bl	8002c8c <HAL_RTC_SetDate>
 80014f0:	b108      	cbz	r0, 80014f6 <RTC_setDate+0x16>
 80014f2:	f7ff ff95 	bl	8001420 <Error_Handler>
 80014f6:	b003      	add	sp, #12
 80014f8:	f85d fb04 	ldr.w	pc, [sp], #4
 80014fc:	25110302 	.word	0x25110302
 8001500:	200002e4 	.word	0x200002e4

08001504 <DisplayDateTime>:
 8001504:	b508      	push	{r3, lr}
 8001506:	2080      	movs	r0, #128	@ 0x80
 8001508:	f7ff fc00 	bl	8000d0c <lcd_send_cmd>
 800150c:	4805      	ldr	r0, [pc, #20]	@ (8001524 <DisplayDateTime+0x20>)
 800150e:	f7ff fc94 	bl	8000e3a <lcd_send_string>
 8001512:	20c0      	movs	r0, #192	@ 0xc0
 8001514:	f7ff fbfa 	bl	8000d0c <lcd_send_cmd>
 8001518:	e8bd 4008 	ldmia.w	sp!, {r3, lr}
 800151c:	4802      	ldr	r0, [pc, #8]	@ (8001528 <DisplayDateTime+0x24>)
 800151e:	f7ff bc8c 	b.w	8000e3a <lcd_send_string>
 8001522:	bf00      	nop
 8001524:	200000b8 	.word	0x200000b8
 8001528:	2000009a 	.word	0x2000009a

0800152c <MX_RTC_Init>:
 800152c:	480a      	ldr	r0, [pc, #40]	@ (8001558 <MX_RTC_Init+0x2c>)
 800152e:	4a0b      	ldr	r2, [pc, #44]	@ (800155c <MX_RTC_Init+0x30>)
 8001530:	b508      	push	{r3, lr}
 8001532:	2300      	movs	r3, #0
 8001534:	e9c0 2300 	strd	r2, r3, [r0]
 8001538:	217f      	movs	r1, #127	@ 0x7f
 800153a:	22ff      	movs	r2, #255	@ 0xff
 800153c:	e9c0 1202 	strd	r1, r2, [r0, #8]
 8001540:	e9c0 3304 	strd	r3, r3, [r0, #16]
 8001544:	6183      	str	r3, [r0, #24]
 8001546:	f001 faf4 	bl	8002b32 <HAL_RTC_Init>
 800154a:	b118      	cbz	r0, 8001554 <MX_RTC_Init+0x28>
 800154c:	e8bd 4008 	ldmia.w	sp!, {r3, lr}
 8001550:	f7ff bf66 	b.w	8001420 <Error_Handler>
 8001554:	bd08      	pop	{r3, pc}
 8001556:	bf00      	nop
 8001558:	200002e4 	.word	0x200002e4
 800155c:	40002800 	.word	0x40002800

08001560 <create_new_file>:
 8001560:	b510      	push	{r4, lr}
 8001562:	4c12      	ldr	r4, [pc, #72]	@ (80015ac <create_new_file+0x4c>)
 8001564:	b08a      	sub	sp, #40	@ 0x28
 8001566:	a905      	add	r1, sp, #20
 8001568:	2200      	movs	r2, #0
 800156a:	4620      	mov	r0, r4
 800156c:	f001 fbde 	bl	8002d2c <HAL_RTC_GetTime>
 8001570:	a904      	add	r1, sp, #16
 8001572:	2200      	movs	r2, #0
 8001574:	4620      	mov	r0, r4
 8001576:	f001 fbfc 	bl	8002d72 <HAL_RTC_GetDate>
 800157a:	f89d 3016 	ldrb.w	r3, [sp, #22]
 800157e:	9303      	str	r3, [sp, #12]
 8001580:	f89d 3015 	ldrb.w	r3, [sp, #21]
 8001584:	9302      	str	r3, [sp, #8]
 8001586:	f89d 3014 	ldrb.w	r3, [sp, #20]
 800158a:	9301      	str	r3, [sp, #4]
 800158c:	f89d 3013 	ldrb.w	r3, [sp, #19]
 8001590:	f89d 2012 	ldrb.w	r2, [sp, #18]
 8001594:	4906      	ldr	r1, [pc, #24]	@ (80015b0 <create_new_file+0x50>)
 8001596:	4807      	ldr	r0, [pc, #28]	@ (80015b4 <create_new_file+0x54>)
 8001598:	f503 63fa 	add.w	r3, r3, #2000	@ 0x7d0
 800159c:	9300      	str	r3, [sp, #0]
 800159e:	f89d 3011 	ldrb.w	r3, [sp, #17]
 80015a2:	f003 fe99 	bl	80052d8 <siprintf>
 80015a6:	b00a      	add	sp, #40	@ 0x28
 80015a8:	bd10      	pop	{r4, pc}
 80015aa:	bf00      	nop
 80015ac:	200002e4 	.word	0x200002e4
 80015b0:	08005c86 	.word	0x08005c86
 80015b4:	200002bc 	.word	0x200002bc

080015b8 <log_to_sdcard>:
 80015b8:	b570      	push	{r4, r5, r6, lr}
 80015ba:	b098      	sub	sp, #96	@ 0x60
 80015bc:	4605      	mov	r5, r0
 80015be:	2200      	movs	r2, #0
 80015c0:	a906      	add	r1, sp, #24
 80015c2:	482f      	ldr	r0, [pc, #188]	@ (8001680 <log_to_sdcard+0xc8>)
 80015c4:	4c2f      	ldr	r4, [pc, #188]	@ (8001684 <log_to_sdcard+0xcc>)
 80015c6:	4e30      	ldr	r6, [pc, #192]	@ (8001688 <log_to_sdcard+0xd0>)
 80015c8:	f001 fbb0 	bl	8002d2c <HAL_RTC_GetTime>
 80015cc:	2200      	movs	r2, #0
 80015ce:	a905      	add	r1, sp, #20
 80015d0:	482b      	ldr	r0, [pc, #172]	@ (8001680 <log_to_sdcard+0xc8>)
 80015d2:	f001 fbce 	bl	8002d72 <HAL_RTC_GetDate>
 80015d6:	f89d 301a 	ldrb.w	r3, [sp, #26]
 80015da:	9303      	str	r3, [sp, #12]
 80015dc:	f89d 3019 	ldrb.w	r3, [sp, #25]
 80015e0:	9302      	str	r3, [sp, #8]
 80015e2:	f89d 3018 	ldrb.w	r3, [sp, #24]
 80015e6:	9301      	str	r3, [sp, #4]
 80015e8:	f89d 3017 	ldrb.w	r3, [sp, #23]
 80015ec:	f89d 2016 	ldrb.w	r2, [sp, #22]
 80015f0:	4926      	ldr	r1, [pc, #152]	@ (800168c <log_to_sdcard+0xd4>)
 80015f2:	f503 63fa 	add.w	r3, r3, #2000	@ 0x7d0
 80015f6:	9300      	str	r3, [sp, #0]
 80015f8:	a80b      	add	r0, sp, #44	@ 0x2c
 80015fa:	f89d 3015 	ldrb.w	r3, [sp, #21]
 80015fe:	f003 fe6b 	bl	80052d8 <siprintf>
 8001602:	4923      	ldr	r1, [pc, #140]	@ (8001690 <log_to_sdcard+0xd8>)
 8001604:	4823      	ldr	r0, [pc, #140]	@ (8001694 <log_to_sdcard+0xdc>)
 8001606:	2201      	movs	r2, #1
 8001608:	f003 fa28 	bl	8004a5c <f_mount>
 800160c:	2212      	movs	r2, #18
 800160e:	4922      	ldr	r1, [pc, #136]	@ (8001698 <log_to_sdcard+0xe0>)
 8001610:	7030      	strb	r0, [r6, #0]
 8001612:	4620      	mov	r0, r4
 8001614:	f003 fa4c 	bl	8004ab0 <f_open>
 8001618:	68e1      	ldr	r1, [r4, #12]
 800161a:	7030      	strb	r0, [r6, #0]
 800161c:	4620      	mov	r0, r4
 800161e:	f003 fc72 	bl	8004f06 <f_lseek>
 8001622:	a80b      	add	r0, sp, #44	@ 0x2c
 8001624:	f7fe fddc 	bl	80001e0 <strlen>
 8001628:	2300      	movs	r3, #0
 800162a:	4602      	mov	r2, r0
 800162c:	a90b      	add	r1, sp, #44	@ 0x2c
 800162e:	4620      	mov	r0, r4
 8001630:	f003 fb3e 	bl	8004cb0 <f_write>
 8001634:	4628      	mov	r0, r5
 8001636:	f7fe fdd3 	bl	80001e0 <strlen>
 800163a:	4629      	mov	r1, r5
 800163c:	4602      	mov	r2, r0
 800163e:	2300      	movs	r3, #0
 8001640:	4620      	mov	r0, r4
 8001642:	f003 fb35 	bl	8004cb0 <f_write>
 8001646:	2300      	movs	r3, #0
 8001648:	4914      	ldr	r1, [pc, #80]	@ (800169c <log_to_sdcard+0xe4>)
 800164a:	4d15      	ldr	r5, [pc, #84]	@ (80016a0 <log_to_sdcard+0xe8>)
 800164c:	2202      	movs	r2, #2
 800164e:	4620      	mov	r0, r4
 8001650:	f003 fb2e 	bl	8004cb0 <f_write>
 8001654:	4620      	mov	r0, r4
 8001656:	4c13      	ldr	r4, [pc, #76]	@ (80016a4 <log_to_sdcard+0xec>)
 8001658:	f003 fc44 	bl	8004ee4 <f_close>
 800165c:	2201      	movs	r2, #1
 800165e:	490c      	ldr	r1, [pc, #48]	@ (8001690 <log_to_sdcard+0xd8>)
 8001660:	2000      	movs	r0, #0
 8001662:	f003 f9fb 	bl	8004a5c <f_mount>
 8001666:	f89d 3019 	ldrb.w	r3, [sp, #25]
 800166a:	6822      	ldr	r2, [r4, #0]
 800166c:	602b      	str	r3, [r5, #0]
 800166e:	4293      	cmp	r3, r2
 8001670:	d003      	beq.n	800167a <log_to_sdcard+0xc2>
 8001672:	f7ff ff75 	bl	8001560 <create_new_file>
 8001676:	682b      	ldr	r3, [r5, #0]
 8001678:	6023      	str	r3, [r4, #0]
 800167a:	b018      	add	sp, #96	@ 0x60
 800167c:	bd70      	pop	{r4, r5, r6, pc}
 800167e:	bf00      	nop
 8001680:	200002e4 	.word	0x200002e4
 8001684:	20000308 	.word	0x20000308
 8001688:	20000304 	.word	0x20000304
 800168c:	08005ca8 	.word	0x08005ca8
 8001690:	08005ccb 	.word	0x08005ccb
 8001694:	20001338 	.word	0x20001338
 8001698:	200002bc 	.word	0x200002bc
 800169c:	08005cc9 	.word	0x08005cc9
 80016a0:	20002374 	.word	0x20002374
 80016a4:	20002370 	.word	0x20002370

080016a8 <ReadsdCardStorage>:
 80016a8:	b570      	push	{r4, r5, r6, lr}
 80016aa:	f5ad 5d82 	sub.w	sp, sp, #4160	@ 0x1040
 80016ae:	b086      	sub	sp, #24
 80016b0:	f7ff fb70 	bl	8000d94 <lcd_clear>
 80016b4:	4e39      	ldr	r6, [pc, #228]	@ (800179c <ReadsdCardStorage+0xf4>)
 80016b6:	2201      	movs	r2, #1
 80016b8:	4631      	mov	r1, r6
 80016ba:	a808      	add	r0, sp, #32
 80016bc:	f003 f9ce 	bl	8004a5c <f_mount>
 80016c0:	b110      	cbz	r0, 80016c8 <ReadsdCardStorage+0x20>
 80016c2:	4837      	ldr	r0, [pc, #220]	@ (80017a0 <ReadsdCardStorage+0xf8>)
 80016c4:	f7ff fbb9 	bl	8000e3a <lcd_send_string>
 80016c8:	ab06      	add	r3, sp, #24
 80016ca:	aa02      	add	r2, sp, #8
 80016cc:	f1a3 010c 	sub.w	r1, r3, #12
 80016d0:	4630      	mov	r0, r6
 80016d2:	f003 fd1e 	bl	8005112 <f_getfree>
 80016d6:	b110      	cbz	r0, 80016de <ReadsdCardStorage+0x36>
 80016d8:	4832      	ldr	r0, [pc, #200]	@ (80017a4 <ReadsdCardStorage+0xfc>)
 80016da:	f7ff fbae 	bl	8000e3a <lcd_send_string>
 80016de:	9a02      	ldr	r2, [sp, #8]
 80016e0:	9d03      	ldr	r5, [sp, #12]
 80016e2:	8953      	ldrh	r3, [r2, #10]
 80016e4:	69d2      	ldr	r2, [r2, #28]
 80016e6:	3a02      	subs	r2, #2
 80016e8:	435a      	muls	r2, r3
 80016ea:	435d      	muls	r5, r3
 80016ec:	0253      	lsls	r3, r2, #9
 80016ee:	f5b3 6f80 	cmp.w	r3, #1024	@ 0x400
 80016f2:	f3c5 0555 	ubfx	r5, r5, #1, #22
 80016f6:	f3c2 0455 	ubfx	r4, r2, #1, #22
 80016fa:	d202      	bcs.n	8001702 <ReadsdCardStorage+0x5a>
 80016fc:	4828      	ldr	r0, [pc, #160]	@ (80017a0 <ReadsdCardStorage+0xf8>)
 80016fe:	f7ff fb9c 	bl	8000e3a <lcd_send_string>
 8001702:	2100      	movs	r1, #0
 8001704:	4608      	mov	r0, r1
 8001706:	f7ff fb50 	bl	8000daa <lcd_put_cur>
 800170a:	ab04      	add	r3, sp, #16
 800170c:	4618      	mov	r0, r3
 800170e:	462a      	mov	r2, r5
 8001710:	4925      	ldr	r1, [pc, #148]	@ (80017a8 <ReadsdCardStorage+0x100>)
 8001712:	9301      	str	r3, [sp, #4]
 8001714:	f003 fde0 	bl	80052d8 <siprintf>
 8001718:	9801      	ldr	r0, [sp, #4]
 800171a:	f7ff fb8e 	bl	8000e3a <lcd_send_string>
 800171e:	2100      	movs	r1, #0
 8001720:	2001      	movs	r0, #1
 8001722:	f7ff fb42 	bl	8000daa <lcd_put_cur>
 8001726:	2210      	movs	r2, #16
 8001728:	2100      	movs	r1, #0
 800172a:	9801      	ldr	r0, [sp, #4]
 800172c:	f003 fdf4 	bl	8005318 <memset>
 8001730:	4622      	mov	r2, r4
 8001732:	491e      	ldr	r1, [pc, #120]	@ (80017ac <ReadsdCardStorage+0x104>)
 8001734:	9801      	ldr	r0, [sp, #4]
 8001736:	f003 fdcf 	bl	80052d8 <siprintf>
 800173a:	9801      	ldr	r0, [sp, #4]
 800173c:	f7ff fb7d 	bl	8000e3a <lcd_send_string>
 8001740:	481b      	ldr	r0, [pc, #108]	@ (80017b0 <ReadsdCardStorage+0x108>)
 8001742:	2101      	movs	r1, #1
 8001744:	f000 fb8a 	bl	8001e5c <HAL_GPIO_ReadPin>
 8001748:	2801      	cmp	r0, #1
 800174a:	4604      	mov	r4, r0
 800174c:	d00e      	beq.n	800176c <ReadsdCardStorage+0xc4>
 800174e:	2401      	movs	r4, #1
 8001750:	4818      	ldr	r0, [pc, #96]	@ (80017b4 <ReadsdCardStorage+0x10c>)
 8001752:	f000 fe09 	bl	8002368 <HAL_IWDG_Refresh>
 8001756:	2c00      	cmp	r4, #0
 8001758:	d1ad      	bne.n	80016b6 <ReadsdCardStorage+0xe>
 800175a:	f7ff fb1b 	bl	8000d94 <lcd_clear>
 800175e:	20c8      	movs	r0, #200	@ 0xc8
 8001760:	f000 f9ec 	bl	8001b3c <HAL_Delay>
 8001764:	f50d 5d82 	add.w	sp, sp, #4160	@ 0x1040
 8001768:	b006      	add	sp, #24
 800176a:	bd70      	pop	{r4, r5, r6, pc}
 800176c:	4810      	ldr	r0, [pc, #64]	@ (80017b0 <ReadsdCardStorage+0x108>)
 800176e:	2102      	movs	r1, #2
 8001770:	f000 fb74 	bl	8001e5c <HAL_GPIO_ReadPin>
 8001774:	2800      	cmp	r0, #0
 8001776:	d1ea      	bne.n	800174e <ReadsdCardStorage+0xa6>
 8001778:	2032      	movs	r0, #50	@ 0x32
 800177a:	f000 f9df 	bl	8001b3c <HAL_Delay>
 800177e:	480c      	ldr	r0, [pc, #48]	@ (80017b0 <ReadsdCardStorage+0x108>)
 8001780:	4621      	mov	r1, r4
 8001782:	f000 fb6b 	bl	8001e5c <HAL_GPIO_ReadPin>
 8001786:	2801      	cmp	r0, #1
 8001788:	d1e1      	bne.n	800174e <ReadsdCardStorage+0xa6>
 800178a:	4809      	ldr	r0, [pc, #36]	@ (80017b0 <ReadsdCardStorage+0x108>)
 800178c:	2102      	movs	r1, #2
 800178e:	f000 fb65 	bl	8001e5c <HAL_GPIO_ReadPin>
 8001792:	1e04      	subs	r4, r0, #0
 8001794:	bf18      	it	ne
 8001796:	2401      	movne	r4, #1
 8001798:	e7da      	b.n	8001750 <ReadsdCardStorage+0xa8>
 800179a:	bf00      	nop
 800179c:	08005ccb 	.word	0x08005ccb
 80017a0:	08005ccc 	.word	0x08005ccc
 80017a4:	08005cd7 	.word	0x08005cd7
 80017a8:	08005ce8 	.word	0x08005ce8
 80017ac:	08005cf5 	.word	0x08005cf5
 80017b0:	40020000 	.word	0x40020000
 80017b4:	2000025c 	.word	0x2000025c

080017b8 <HAL_MspInit>:
 80017b8:	b082      	sub	sp, #8
 80017ba:	4b0c      	ldr	r3, [pc, #48]	@ (80017ec <HAL_MspInit+0x34>)
 80017bc:	2100      	movs	r1, #0
 80017be:	9100      	str	r1, [sp, #0]
 80017c0:	6c5a      	ldr	r2, [r3, #68]	@ 0x44
 80017c2:	f442 4280 	orr.w	r2, r2, #16384	@ 0x4000
 80017c6:	645a      	str	r2, [r3, #68]	@ 0x44
 80017c8:	6c5a      	ldr	r2, [r3, #68]	@ 0x44
 80017ca:	f402 4280 	and.w	r2, r2, #16384	@ 0x4000
 80017ce:	9200      	str	r2, [sp, #0]
 80017d0:	9a00      	ldr	r2, [sp, #0]
 80017d2:	9101      	str	r1, [sp, #4]
 80017d4:	6c1a      	ldr	r2, [r3, #64]	@ 0x40
 80017d6:	f042 5280 	orr.w	r2, r2, #268435456	@ 0x10000000
 80017da:	641a      	str	r2, [r3, #64]	@ 0x40
 80017dc:	6c1b      	ldr	r3, [r3, #64]	@ 0x40
 80017de:	f003 5380 	and.w	r3, r3, #268435456	@ 0x10000000
 80017e2:	9301      	str	r3, [sp, #4]
 80017e4:	9b01      	ldr	r3, [sp, #4]
 80017e6:	b002      	add	sp, #8
 80017e8:	4770      	bx	lr
 80017ea:	bf00      	nop
 80017ec:	40023800 	.word	0x40023800

080017f0 <HAL_I2C_MspInit>:
 80017f0:	b530      	push	{r4, r5, lr}
 80017f2:	4604      	mov	r4, r0
 80017f4:	b089      	sub	sp, #36	@ 0x24
 80017f6:	2214      	movs	r2, #20
 80017f8:	2100      	movs	r1, #0
 80017fa:	a803      	add	r0, sp, #12
 80017fc:	f003 fd8c 	bl	8005318 <memset>
 8001800:	6822      	ldr	r2, [r4, #0]
 8001802:	4b13      	ldr	r3, [pc, #76]	@ (8001850 <HAL_I2C_MspInit+0x60>)
 8001804:	429a      	cmp	r2, r3
 8001806:	d121      	bne.n	800184c <HAL_I2C_MspInit+0x5c>
 8001808:	4c12      	ldr	r4, [pc, #72]	@ (8001854 <HAL_I2C_MspInit+0x64>)
 800180a:	4813      	ldr	r0, [pc, #76]	@ (8001858 <HAL_I2C_MspInit+0x68>)
 800180c:	2500      	movs	r5, #0
 800180e:	9501      	str	r5, [sp, #4]
 8001810:	6b23      	ldr	r3, [r4, #48]	@ 0x30
 8001812:	f043 0302 	orr.w	r3, r3, #2
 8001816:	6323      	str	r3, [r4, #48]	@ 0x30
 8001818:	6b23      	ldr	r3, [r4, #48]	@ 0x30
 800181a:	f003 0302 	and.w	r3, r3, #2
 800181e:	9301      	str	r3, [sp, #4]
 8001820:	9b01      	ldr	r3, [sp, #4]
 8001822:	22c0      	movs	r2, #192	@ 0xc0
 8001824:	2312      	movs	r3, #18
 8001826:	e9cd 2303 	strd	r2, r3, [sp, #12]
 800182a:	2103      	movs	r1, #3
 800182c:	2304      	movs	r3, #4
 800182e:	e9cd 1306 	strd	r1, r3, [sp, #24]
 8001832:	a903      	add	r1, sp, #12
 8001834:	f000 fa4c 	bl	8001cd0 <HAL_GPIO_Init>
 8001838:	9502      	str	r5, [sp, #8]
 800183a:	6c23      	ldr	r3, [r4, #64]	@ 0x40
 800183c:	f443 1300 	orr.w	r3, r3, #2097152	@ 0x200000
 8001840:	6423      	str	r3, [r4, #64]	@ 0x40
 8001842:	6c23      	ldr	r3, [r4, #64]	@ 0x40
 8001844:	f403 1300 	and.w	r3, r3, #2097152	@ 0x200000
 8001848:	9302      	str	r3, [sp, #8]
 800184a:	9b02      	ldr	r3, [sp, #8]
 800184c:	b009      	add	sp, #36	@ 0x24
 800184e:	bd30      	pop	{r4, r5, pc}
 8001850:	40005400 	.word	0x40005400
 8001854:	40023800 	.word	0x40023800
 8001858:	40020400 	.word	0x40020400

0800185c <HAL_RTC_MspInit>:
 800185c:	b510      	push	{r4, lr}
 800185e:	4604      	mov	r4, r0
 8001860:	b086      	sub	sp, #24
 8001862:	2218      	movs	r2, #24
 8001864:	2100      	movs	r1, #0
 8001866:	4668      	mov	r0, sp
 8001868:	f003 fd56 	bl	8005318 <memset>
 800186c:	6822      	ldr	r2, [r4, #0]
 800186e:	4b0a      	ldr	r3, [pc, #40]	@ (8001898 <HAL_RTC_MspInit+0x3c>)
 8001870:	429a      	cmp	r2, r3
 8001872:	d10e      	bne.n	8001892 <HAL_RTC_MspInit+0x36>
 8001874:	2302      	movs	r3, #2
 8001876:	9300      	str	r3, [sp, #0]
 8001878:	4668      	mov	r0, sp
 800187a:	f44f 7380 	mov.w	r3, #256	@ 0x100
 800187e:	9304      	str	r3, [sp, #16]
 8001880:	f001 f868 	bl	8002954 <HAL_RCCEx_PeriphCLKConfig>
 8001884:	b108      	cbz	r0, 800188a <HAL_RTC_MspInit+0x2e>
 8001886:	f7ff fdcb 	bl	8001420 <Error_Handler>
 800188a:	4b04      	ldr	r3, [pc, #16]	@ (800189c <HAL_RTC_MspInit+0x40>)
 800188c:	2201      	movs	r2, #1
 800188e:	f8c3 2e3c 	str.w	r2, [r3, #3644]	@ 0xe3c
 8001892:	b006      	add	sp, #24
 8001894:	bd10      	pop	{r4, pc}
 8001896:	bf00      	nop
 8001898:	40002800 	.word	0x40002800
 800189c:	42470000 	.word	0x42470000

080018a0 <HAL_SPI_MspInit>:
 80018a0:	b510      	push	{r4, lr}
 80018a2:	4604      	mov	r4, r0
 80018a4:	b088      	sub	sp, #32
 80018a6:	2214      	movs	r2, #20
 80018a8:	2100      	movs	r1, #0
 80018aa:	a803      	add	r0, sp, #12
 80018ac:	f003 fd34 	bl	8005318 <memset>
 80018b0:	6822      	ldr	r2, [r4, #0]
 80018b2:	4b14      	ldr	r3, [pc, #80]	@ (8001904 <HAL_SPI_MspInit+0x64>)
 80018b4:	429a      	cmp	r2, r3
 80018b6:	d122      	bne.n	80018fe <HAL_SPI_MspInit+0x5e>
 80018b8:	f503 3384 	add.w	r3, r3, #67584	@ 0x10800
 80018bc:	2100      	movs	r1, #0
 80018be:	9101      	str	r1, [sp, #4]
 80018c0:	6c5a      	ldr	r2, [r3, #68]	@ 0x44
 80018c2:	4811      	ldr	r0, [pc, #68]	@ (8001908 <HAL_SPI_MspInit+0x68>)
 80018c4:	f442 5280 	orr.w	r2, r2, #4096	@ 0x1000
 80018c8:	645a      	str	r2, [r3, #68]	@ 0x44
 80018ca:	6c5a      	ldr	r2, [r3, #68]	@ 0x44
 80018cc:	f402 5280 	and.w	r2, r2, #4096	@ 0x1000
 80018d0:	9201      	str	r2, [sp, #4]
 80018d2:	9a01      	ldr	r2, [sp, #4]
 80018d4:	9102      	str	r1, [sp, #8]
 80018d6:	6b1a      	ldr	r2, [r3, #48]	@ 0x30
 80018d8:	f042 0201 	orr.w	r2, r2, #1
 80018dc:	631a      	str	r2, [r3, #48]	@ 0x30
 80018de:	6b1b      	ldr	r3, [r3, #48]	@ 0x30
 80018e0:	f003 0301 	and.w	r3, r3, #1
 80018e4:	9302      	str	r3, [sp, #8]
 80018e6:	9b02      	ldr	r3, [sp, #8]
 80018e8:	22e0      	movs	r2, #224	@ 0xe0
 80018ea:	2302      	movs	r3, #2
 80018ec:	2103      	movs	r1, #3
 80018ee:	e9cd 2303 	strd	r2, r3, [sp, #12]
 80018f2:	2305      	movs	r3, #5
 80018f4:	e9cd 1306 	strd	r1, r3, [sp, #24]
 80018f8:	a903      	add	r1, sp, #12
 80018fa:	f000 f9e9 	bl	8001cd0 <HAL_GPIO_Init>
 80018fe:	b008      	add	sp, #32
 8001900:	bd10      	pop	{r4, pc}
 8001902:	bf00      	nop
 8001904:	40013000 	.word	0x40013000
 8001908:	40020000 	.word	0x40020000

0800190c <HAL_UART_MspInit>:
 800190c:	b510      	push	{r4, lr}
 800190e:	4604      	mov	r4, r0
 8001910:	b088      	sub	sp, #32
 8001912:	2214      	movs	r2, #20
 8001914:	2100      	movs	r1, #0
 8001916:	a803      	add	r0, sp, #12
 8001918:	f003 fcfe 	bl	8005318 <memset>
 800191c:	6822      	ldr	r2, [r4, #0]
 800191e:	4b18      	ldr	r3, [pc, #96]	@ (8001980 <HAL_UART_MspInit+0x74>)
 8001920:	429a      	cmp	r2, r3
 8001922:	d12b      	bne.n	800197c <HAL_UART_MspInit+0x70>
 8001924:	f503 3394 	add.w	r3, r3, #75776	@ 0x12800
 8001928:	2400      	movs	r4, #0
 800192a:	9401      	str	r4, [sp, #4]
 800192c:	6c5a      	ldr	r2, [r3, #68]	@ 0x44
 800192e:	4815      	ldr	r0, [pc, #84]	@ (8001984 <HAL_UART_MspInit+0x78>)
 8001930:	f042 0210 	orr.w	r2, r2, #16
 8001934:	645a      	str	r2, [r3, #68]	@ 0x44
 8001936:	6c5a      	ldr	r2, [r3, #68]	@ 0x44
 8001938:	f002 0210 	and.w	r2, r2, #16
 800193c:	9201      	str	r2, [sp, #4]
 800193e:	9a01      	ldr	r2, [sp, #4]
 8001940:	9402      	str	r4, [sp, #8]
 8001942:	6b1a      	ldr	r2, [r3, #48]	@ 0x30
 8001944:	f042 0201 	orr.w	r2, r2, #1
 8001948:	631a      	str	r2, [r3, #48]	@ 0x30
 800194a:	6b1b      	ldr	r3, [r3, #48]	@ 0x30
 800194c:	f003 0301 	and.w	r3, r3, #1
 8001950:	9302      	str	r3, [sp, #8]
 8001952:	f44f 62c0 	mov.w	r2, #1536	@ 0x600
 8001956:	9b02      	ldr	r3, [sp, #8]
 8001958:	2302      	movs	r3, #2
 800195a:	e9cd 2303 	strd	r2, r3, [sp, #12]
 800195e:	2103      	movs	r1, #3
 8001960:	2307      	movs	r3, #7
 8001962:	e9cd 1306 	strd	r1, r3, [sp, #24]
 8001966:	a903      	add	r1, sp, #12
 8001968:	f000 f9b2 	bl	8001cd0 <HAL_GPIO_Init>
 800196c:	2025      	movs	r0, #37	@ 0x25
 800196e:	4622      	mov	r2, r4
 8001970:	4621      	mov	r1, r4
 8001972:	f000 f909 	bl	8001b88 <HAL_NVIC_SetPriority>
 8001976:	2025      	movs	r0, #37	@ 0x25
 8001978:	f000 f938 	bl	8001bec <HAL_NVIC_EnableIRQ>
 800197c:	b008      	add	sp, #32
 800197e:	bd10      	pop	{r4, pc}
 8001980:	40011000 	.word	0x40011000
 8001984:	40020000 	.word	0x40020000

08001988 <NMI_Handler>:
 8001988:	e7fe      	b.n	8001988 <NMI_Handler>

0800198a <HardFault_Handler>:
 800198a:	e7fe      	b.n	800198a <HardFault_Handler>

0800198c <MemManage_Handler>:
 800198c:	e7fe      	b.n	800198c <MemManage_Handler>

0800198e <BusFault_Handler>:
 800198e:	e7fe      	b.n	800198e <BusFault_Handler>

08001990 <UsageFault_Handler>:
 8001990:	e7fe      	b.n	8001990 <UsageFault_Handler>

08001992 <SVC_Handler>:
 8001992:	4770      	bx	lr

08001994 <DebugMon_Handler>:
 8001994:	4770      	bx	lr

08001996 <PendSV_Handler>:
 8001996:	4770      	bx	lr

08001998 <USART1_IRQHandler>:
 8001998:	4801      	ldr	r0, [pc, #4]	@ (80019a0 <USART1_IRQHandler+0x8>)
 800199a:	f001 bdd3 	b.w	8003544 <HAL_UART_IRQHandler>
 800199e:	bf00      	nop
 80019a0:	200001bc 	.word	0x200001bc

080019a4 <SDTimer_handler>:
 80019a4:	4a07      	ldr	r2, [pc, #28]	@ (80019c4 <SDTimer_handler+0x20>)
 80019a6:	7813      	ldrb	r3, [r2, #0]
 80019a8:	b11b      	cbz	r3, 80019b2 <SDTimer_handler+0xe>
 80019aa:	7813      	ldrb	r3, [r2, #0]
 80019ac:	3b01      	subs	r3, #1
 80019ae:	b2db      	uxtb	r3, r3
 80019b0:	7013      	strb	r3, [r2, #0]
 80019b2:	4a05      	ldr	r2, [pc, #20]	@ (80019c8 <SDTimer_handler+0x24>)
 80019b4:	7813      	ldrb	r3, [r2, #0]
 80019b6:	b11b      	cbz	r3, 80019c0 <SDTimer_handler+0x1c>
 80019b8:	7813      	ldrb	r3, [r2, #0]
 80019ba:	3b01      	subs	r3, #1
 80019bc:	b2db      	uxtb	r3, r3
 80019be:	7013      	strb	r3, [r2, #0]
 80019c0:	4770      	bx	lr
 80019c2:	bf00      	nop
 80019c4:	20002379 	.word	0x20002379
 80019c8:	20002378 	.word	0x20002378

080019cc <SysTick_Handler>:
 80019cc:	b508      	push	{r3, lr}
 80019ce:	4a08      	ldr	r2, [pc, #32]	@ (80019f0 <SysTick_Handler+0x24>)
 80019d0:	7813      	ldrb	r3, [r2, #0]
 80019d2:	3301      	adds	r3, #1
 80019d4:	b2db      	uxtb	r3, r3
 80019d6:	7013      	strb	r3, [r2, #0]
 80019d8:	7813      	ldrb	r3, [r2, #0]
 80019da:	2b09      	cmp	r3, #9
 80019dc:	d903      	bls.n	80019e6 <SysTick_Handler+0x1a>
 80019de:	2300      	movs	r3, #0
 80019e0:	7013      	strb	r3, [r2, #0]
 80019e2:	f7ff ffdf 	bl	80019a4 <SDTimer_handler>
 80019e6:	e8bd 4008 	ldmia.w	sp!, {r3, lr}
 80019ea:	f000 b895 	b.w	8001b18 <HAL_IncTick>
 80019ee:	bf00      	nop
 80019f0:	2000237a 	.word	0x2000237a

080019f4 <_sbrk>:
 80019f4:	4a0b      	ldr	r2, [pc, #44]	@ (8001a24 <_sbrk+0x30>)
 80019f6:	6811      	ldr	r1, [r2, #0]
 80019f8:	b510      	push	{r4, lr}
 80019fa:	4603      	mov	r3, r0
 80019fc:	b909      	cbnz	r1, 8001a02 <_sbrk+0xe>
 80019fe:	490a      	ldr	r1, [pc, #40]	@ (8001a28 <_sbrk+0x34>)
 8001a00:	6011      	str	r1, [r2, #0]
 8001a02:	6810      	ldr	r0, [r2, #0]
 8001a04:	4909      	ldr	r1, [pc, #36]	@ (8001a2c <_sbrk+0x38>)
 8001a06:	4c0a      	ldr	r4, [pc, #40]	@ (8001a30 <_sbrk+0x3c>)
 8001a08:	4403      	add	r3, r0
 8001a0a:	1b09      	subs	r1, r1, r4
 8001a0c:	428b      	cmp	r3, r1
 8001a0e:	d906      	bls.n	8001a1e <_sbrk+0x2a>
 8001a10:	f003 fc8a 	bl	8005328 <__errno>
 8001a14:	230c      	movs	r3, #12
 8001a16:	6003      	str	r3, [r0, #0]
 8001a18:	f04f 30ff 	mov.w	r0, #4294967295
 8001a1c:	bd10      	pop	{r4, pc}
 8001a1e:	6013      	str	r3, [r2, #0]
 8001a20:	e7fc      	b.n	8001a1c <_sbrk+0x28>
 8001a22:	bf00      	nop
 8001a24:	2000237c 	.word	0x2000237c
 8001a28:	20002708 	.word	0x20002708
 8001a2c:	20020000 	.word	0x20020000
 8001a30:	00000400 	.word	0x00000400

08001a34 <SystemInit>:
 8001a34:	4a03      	ldr	r2, [pc, #12]	@ (8001a44 <SystemInit+0x10>)
 8001a36:	f8d2 3088 	ldr.w	r3, [r2, #136]	@ 0x88
 8001a3a:	f443 0370 	orr.w	r3, r3, #15728640	@ 0xf00000
 8001a3e:	f8c2 3088 	str.w	r3, [r2, #136]	@ 0x88
 8001a42:	4770      	bx	lr
 8001a44:	e000ed00 	.word	0xe000ed00

08001a48 <Reset_Handler>:
 8001a48:	f8df d034 	ldr.w	sp, [pc, #52]	@ 8001a80 <LoopFillZerobss+0xe>
 8001a4c:	f7ff fff2 	bl	8001a34 <SystemInit>
 8001a50:	480c      	ldr	r0, [pc, #48]	@ (8001a84 <LoopFillZerobss+0x12>)
 8001a52:	490d      	ldr	r1, [pc, #52]	@ (8001a88 <LoopFillZerobss+0x16>)
 8001a54:	4a0d      	ldr	r2, [pc, #52]	@ (8001a8c <LoopFillZerobss+0x1a>)
 8001a56:	2300      	movs	r3, #0
 8001a58:	e002      	b.n	8001a60 <LoopCopyDataInit>

08001a5a <CopyDataInit>:
 8001a5a:	58d4      	ldr	r4, [r2, r3]
 8001a5c:	50c4      	str	r4, [r0, r3]
 8001a5e:	3304      	adds	r3, #4

08001a60 <LoopCopyDataInit>:
 8001a60:	18c4      	adds	r4, r0, r3
 8001a62:	428c      	cmp	r4, r1
 8001a64:	d3f9      	bcc.n	8001a5a <CopyDataInit>
 8001a66:	4a0a      	ldr	r2, [pc, #40]	@ (8001a90 <LoopFillZerobss+0x1e>)
 8001a68:	4c0a      	ldr	r4, [pc, #40]	@ (8001a94 <LoopFillZerobss+0x22>)
 8001a6a:	2300      	movs	r3, #0
 8001a6c:	e001      	b.n	8001a72 <LoopFillZerobss>

08001a6e <FillZerobss>:
 8001a6e:	6013      	str	r3, [r2, #0]
 8001a70:	3204      	adds	r2, #4

08001a72 <LoopFillZerobss>:
 8001a72:	42a2      	cmp	r2, r4
 8001a74:	d3fb      	bcc.n	8001a6e <FillZerobss>
 8001a76:	f003 fc5d 	bl	8005334 <__libc_init_array>
 8001a7a:	f7ff fbe7 	bl	800124c <main>
 8001a7e:	4770      	bx	lr
 8001a80:	20020000 	.word	0x20020000
 8001a84:	20000000 	.word	0x20000000
 8001a88:	20000074 	.word	0x20000074
 8001a8c:	080061ac 	.word	0x080061ac
 8001a90:	20000074 	.word	0x20000074
 8001a94:	20002708 	.word	0x20002708

08001a98 <ADC_IRQHandler>:
 8001a98:	e7fe      	b.n	8001a98 <ADC_IRQHandler>
	...

08001a9c <HAL_InitTick>:
 8001a9c:	b538      	push	{r3, r4, r5, lr}
 8001a9e:	4b0e      	ldr	r3, [pc, #56]	@ (8001ad8 <HAL_InitTick+0x3c>)
 8001aa0:	781a      	ldrb	r2, [r3, #0]
 8001aa2:	f44f 737a 	mov.w	r3, #1000	@ 0x3e8
 8001aa6:	fbb3 f3f2 	udiv	r3, r3, r2
 8001aaa:	4a0c      	ldr	r2, [pc, #48]	@ (8001adc <HAL_InitTick+0x40>)
 8001aac:	4605      	mov	r5, r0
 8001aae:	6810      	ldr	r0, [r2, #0]
 8001ab0:	fbb0 f0f3 	udiv	r0, r0, r3
 8001ab4:	f000 f8a8 	bl	8001c08 <HAL_SYSTICK_Config>
 8001ab8:	4604      	mov	r4, r0
 8001aba:	b958      	cbnz	r0, 8001ad4 <HAL_InitTick+0x38>
 8001abc:	2d0f      	cmp	r5, #15
 8001abe:	d809      	bhi.n	8001ad4 <HAL_InitTick+0x38>
 8001ac0:	4602      	mov	r2, r0
 8001ac2:	4629      	mov	r1, r5
 8001ac4:	f04f 30ff 	mov.w	r0, #4294967295
 8001ac8:	f000 f85e 	bl	8001b88 <HAL_NVIC_SetPriority>
 8001acc:	4b04      	ldr	r3, [pc, #16]	@ (8001ae0 <HAL_InitTick+0x44>)
 8001ace:	4620      	mov	r0, r4
 8001ad0:	601d      	str	r5, [r3, #0]
 8001ad2:	bd38      	pop	{r3, r4, r5, pc}
 8001ad4:	2001      	movs	r0, #1
 8001ad6:	e7fc      	b.n	8001ad2 <HAL_InitTick+0x36>
 8001ad8:	20000008 	.word	0x20000008
 8001adc:	20000004 	.word	0x20000004
 8001ae0:	2000000c 	.word	0x2000000c

08001ae4 <HAL_Init>:
 8001ae4:	b508      	push	{r3, lr}
 8001ae6:	4b0b      	ldr	r3, [pc, #44]	@ (8001b14 <HAL_Init+0x30>)
 8001ae8:	681a      	ldr	r2, [r3, #0]
 8001aea:	f442 7200 	orr.w	r2, r2, #512	@ 0x200
 8001aee:	601a      	str	r2, [r3, #0]
 8001af0:	681a      	ldr	r2, [r3, #0]
 8001af2:	f442 6280 	orr.w	r2, r2, #1024	@ 0x400
 8001af6:	601a      	str	r2, [r3, #0]
 8001af8:	681a      	ldr	r2, [r3, #0]
 8001afa:	f442 7280 	orr.w	r2, r2, #256	@ 0x100
 8001afe:	601a      	str	r2, [r3, #0]
 8001b00:	2003      	movs	r0, #3
 8001b02:	f000 f82f 	bl	8001b64 <HAL_NVIC_SetPriorityGrouping>
 8001b06:	200f      	movs	r0, #15
 8001b08:	f7ff ffc8 	bl	8001a9c <HAL_InitTick>
 8001b0c:	f7ff fe54 	bl	80017b8 <HAL_MspInit>
 8001b10:	2000      	movs	r0, #0
 8001b12:	bd08      	pop	{r3, pc}
 8001b14:	40023c00 	.word	0x40023c00

08001b18 <HAL_IncTick>:
 8001b18:	4a03      	ldr	r2, [pc, #12]	@ (8001b28 <HAL_IncTick+0x10>)
 8001b1a:	4b04      	ldr	r3, [pc, #16]	@ (8001b2c <HAL_IncTick+0x14>)
 8001b1c:	6811      	ldr	r1, [r2, #0]
 8001b1e:	781b      	ldrb	r3, [r3, #0]
 8001b20:	440b      	add	r3, r1
 8001b22:	6013      	str	r3, [r2, #0]
 8001b24:	4770      	bx	lr
 8001b26:	bf00      	nop
 8001b28:	20002380 	.word	0x20002380
 8001b2c:	20000008 	.word	0x20000008

08001b30 <HAL_GetTick>:
 8001b30:	4b01      	ldr	r3, [pc, #4]	@ (8001b38 <HAL_GetTick+0x8>)
 8001b32:	6818      	ldr	r0, [r3, #0]
 8001b34:	4770      	bx	lr
 8001b36:	bf00      	nop
 8001b38:	20002380 	.word	0x20002380

08001b3c <HAL_Delay>:
 8001b3c:	b538      	push	{r3, r4, r5, lr}
 8001b3e:	4604      	mov	r4, r0
 8001b40:	f7ff fff6 	bl	8001b30 <HAL_GetTick>
 8001b44:	1c63      	adds	r3, r4, #1
 8001b46:	bf1c      	itt	ne
 8001b48:	4b05      	ldrne	r3, [pc, #20]	@ (8001b60 <HAL_Delay+0x24>)
 8001b4a:	781b      	ldrbne	r3, [r3, #0]
 8001b4c:	4605      	mov	r5, r0
 8001b4e:	bf18      	it	ne
 8001b50:	18e4      	addne	r4, r4, r3
 8001b52:	f7ff ffed 	bl	8001b30 <HAL_GetTick>
 8001b56:	1b43      	subs	r3, r0, r5
 8001b58:	42a3      	cmp	r3, r4
 8001b5a:	d3fa      	bcc.n	8001b52 <HAL_Delay+0x16>
 8001b5c:	bd38      	pop	{r3, r4, r5, pc}
 8001b5e:	bf00      	nop
 8001b60:	20000008 	.word	0x20000008

08001b64 <HAL_NVIC_SetPriorityGrouping>:
 8001b64:	4907      	ldr	r1, [pc, #28]	@ (8001b84 <HAL_NVIC_SetPriorityGrouping+0x20>)
 8001b66:	68ca      	ldr	r2, [r1, #12]
 8001b68:	f422 62e0 	bic.w	r2, r2, #1792	@ 0x700
 8001b6c:	0203      	lsls	r3, r0, #8
 8001b6e:	0412      	lsls	r2, r2, #16
 8001b70:	f403 63e0 	and.w	r3, r3, #1792	@ 0x700
 8001b74:	0c12      	lsrs	r2, r2, #16
 8001b76:	4313      	orrs	r3, r2
 8001b78:	f043 63bf 	orr.w	r3, r3, #100139008	@ 0x5f80000
 8001b7c:	f443 3300 	orr.w	r3, r3, #131072	@ 0x20000
 8001b80:	60cb      	str	r3, [r1, #12]
 8001b82:	4770      	bx	lr
 8001b84:	e000ed00 	.word	0xe000ed00

08001b88 <HAL_NVIC_SetPriority>:
 8001b88:	4b16      	ldr	r3, [pc, #88]	@ (8001be4 <HAL_NVIC_SetPriority+0x5c>)
 8001b8a:	b530      	push	{r4, r5, lr}
 8001b8c:	68dc      	ldr	r4, [r3, #12]
 8001b8e:	f3c4 2402 	ubfx	r4, r4, #8, #3
 8001b92:	f1c4 0307 	rsb	r3, r4, #7
 8001b96:	1d25      	adds	r5, r4, #4
 8001b98:	2b04      	cmp	r3, #4
 8001b9a:	bf28      	it	cs
 8001b9c:	2304      	movcs	r3, #4
 8001b9e:	2d06      	cmp	r5, #6
 8001ba0:	f04f 35ff 	mov.w	r5, #4294967295
 8001ba4:	bf8c      	ite	hi
 8001ba6:	3c03      	subhi	r4, #3
 8001ba8:	2400      	movls	r4, #0
 8001baa:	fa05 f303 	lsl.w	r3, r5, r3
 8001bae:	ea21 0303 	bic.w	r3, r1, r3
 8001bb2:	40a5      	lsls	r5, r4
 8001bb4:	ea22 0205 	bic.w	r2, r2, r5
 8001bb8:	40a3      	lsls	r3, r4
 8001bba:	2800      	cmp	r0, #0
 8001bbc:	ea43 0302 	orr.w	r3, r3, r2
 8001bc0:	bfac      	ite	ge
 8001bc2:	f100 4060 	addge.w	r0, r0, #3758096384	@ 0xe0000000
 8001bc6:	4a08      	ldrlt	r2, [pc, #32]	@ (8001be8 <HAL_NVIC_SetPriority+0x60>)
 8001bc8:	ea4f 1303 	mov.w	r3, r3, lsl #4
 8001bcc:	bfb8      	it	lt
 8001bce:	f000 000f 	andlt.w	r0, r0, #15
 8001bd2:	b2db      	uxtb	r3, r3
 8001bd4:	bfaa      	itet	ge
 8001bd6:	f500 4061 	addge.w	r0, r0, #57600	@ 0xe100
 8001bda:	5413      	strblt	r3, [r2, r0]
 8001bdc:	f880 3300 	strbge.w	r3, [r0, #768]	@ 0x300
 8001be0:	bd30      	pop	{r4, r5, pc}
 8001be2:	bf00      	nop
 8001be4:	e000ed00 	.word	0xe000ed00
 8001be8:	e000ed14 	.word	0xe000ed14

08001bec <HAL_NVIC_EnableIRQ>:
 8001bec:	2800      	cmp	r0, #0
 8001bee:	db07      	blt.n	8001c00 <HAL_NVIC_EnableIRQ+0x14>
 8001bf0:	4a04      	ldr	r2, [pc, #16]	@ (8001c04 <HAL_NVIC_EnableIRQ+0x18>)
 8001bf2:	0941      	lsrs	r1, r0, #5
 8001bf4:	2301      	movs	r3, #1
 8001bf6:	f000 001f 	and.w	r0, r0, #31
 8001bfa:	4083      	lsls	r3, r0
 8001bfc:	f842 3021 	str.w	r3, [r2, r1, lsl #2]
 8001c00:	4770      	bx	lr
 8001c02:	bf00      	nop
 8001c04:	e000e100 	.word	0xe000e100

08001c08 <HAL_SYSTICK_Config>:
 8001c08:	3801      	subs	r0, #1
 8001c0a:	f1b0 7f80 	cmp.w	r0, #16777216	@ 0x1000000
 8001c0e:	d20b      	bcs.n	8001c28 <HAL_SYSTICK_Config+0x20>
 8001c10:	f04f 23e0 	mov.w	r3, #3758153728	@ 0xe000e000
 8001c14:	4a05      	ldr	r2, [pc, #20]	@ (8001c2c <HAL_SYSTICK_Config+0x24>)
 8001c16:	6158      	str	r0, [r3, #20]
 8001c18:	21f0      	movs	r1, #240	@ 0xf0
 8001c1a:	f882 1023 	strb.w	r1, [r2, #35]	@ 0x23
 8001c1e:	2000      	movs	r0, #0
 8001c20:	2207      	movs	r2, #7
 8001c22:	6198      	str	r0, [r3, #24]
 8001c24:	611a      	str	r2, [r3, #16]
 8001c26:	4770      	bx	lr
 8001c28:	2001      	movs	r0, #1
 8001c2a:	4770      	bx	lr
 8001c2c:	e000ed00 	.word	0xe000ed00

08001c30 <HAL_DMA_Abort>:
 8001c30:	b570      	push	{r4, r5, r6, lr}
 8001c32:	4604      	mov	r4, r0
 8001c34:	6d86      	ldr	r6, [r0, #88]	@ 0x58
 8001c36:	f7ff ff7b 	bl	8001b30 <HAL_GetTick>
 8001c3a:	f894 3035 	ldrb.w	r3, [r4, #53]	@ 0x35
 8001c3e:	2b02      	cmp	r3, #2
 8001c40:	4605      	mov	r5, r0
 8001c42:	d006      	beq.n	8001c52 <HAL_DMA_Abort+0x22>
 8001c44:	2380      	movs	r3, #128	@ 0x80
 8001c46:	6563      	str	r3, [r4, #84]	@ 0x54
 8001c48:	2001      	movs	r0, #1
 8001c4a:	2300      	movs	r3, #0
 8001c4c:	f884 3034 	strb.w	r3, [r4, #52]	@ 0x34
 8001c50:	bd70      	pop	{r4, r5, r6, pc}
 8001c52:	6823      	ldr	r3, [r4, #0]
 8001c54:	681a      	ldr	r2, [r3, #0]
 8001c56:	f022 0216 	bic.w	r2, r2, #22
 8001c5a:	601a      	str	r2, [r3, #0]
 8001c5c:	695a      	ldr	r2, [r3, #20]
 8001c5e:	f022 0280 	bic.w	r2, r2, #128	@ 0x80
 8001c62:	615a      	str	r2, [r3, #20]
 8001c64:	6c22      	ldr	r2, [r4, #64]	@ 0x40
 8001c66:	b90a      	cbnz	r2, 8001c6c <HAL_DMA_Abort+0x3c>
 8001c68:	6ca2      	ldr	r2, [r4, #72]	@ 0x48
 8001c6a:	b11a      	cbz	r2, 8001c74 <HAL_DMA_Abort+0x44>
 8001c6c:	681a      	ldr	r2, [r3, #0]
 8001c6e:	f022 0208 	bic.w	r2, r2, #8
 8001c72:	601a      	str	r2, [r3, #0]
 8001c74:	681a      	ldr	r2, [r3, #0]
 8001c76:	f022 0201 	bic.w	r2, r2, #1
 8001c7a:	601a      	str	r2, [r3, #0]
 8001c7c:	6823      	ldr	r3, [r4, #0]
 8001c7e:	6818      	ldr	r0, [r3, #0]
 8001c80:	f010 0001 	ands.w	r0, r0, #1
 8001c84:	d107      	bne.n	8001c96 <HAL_DMA_Abort+0x66>
 8001c86:	6de2      	ldr	r2, [r4, #92]	@ 0x5c
 8001c88:	233f      	movs	r3, #63	@ 0x3f
 8001c8a:	4093      	lsls	r3, r2
 8001c8c:	60b3      	str	r3, [r6, #8]
 8001c8e:	2301      	movs	r3, #1
 8001c90:	f884 3035 	strb.w	r3, [r4, #53]	@ 0x35
 8001c94:	e7d9      	b.n	8001c4a <HAL_DMA_Abort+0x1a>
 8001c96:	f7ff ff4b 	bl	8001b30 <HAL_GetTick>
 8001c9a:	1b40      	subs	r0, r0, r5
 8001c9c:	2805      	cmp	r0, #5
 8001c9e:	d9ed      	bls.n	8001c7c <HAL_DMA_Abort+0x4c>
 8001ca0:	2320      	movs	r3, #32
 8001ca2:	2003      	movs	r0, #3
 8001ca4:	6563      	str	r3, [r4, #84]	@ 0x54
 8001ca6:	f884 0035 	strb.w	r0, [r4, #53]	@ 0x35
 8001caa:	e7ce      	b.n	8001c4a <HAL_DMA_Abort+0x1a>

08001cac <HAL_DMA_Abort_IT>:
 8001cac:	f890 3035 	ldrb.w	r3, [r0, #53]	@ 0x35
 8001cb0:	2b02      	cmp	r3, #2
 8001cb2:	d003      	beq.n	8001cbc <HAL_DMA_Abort_IT+0x10>
 8001cb4:	2380      	movs	r3, #128	@ 0x80
 8001cb6:	6543      	str	r3, [r0, #84]	@ 0x54
 8001cb8:	2001      	movs	r0, #1
 8001cba:	4770      	bx	lr
 8001cbc:	6802      	ldr	r2, [r0, #0]
 8001cbe:	2305      	movs	r3, #5
 8001cc0:	f880 3035 	strb.w	r3, [r0, #53]	@ 0x35
 8001cc4:	6813      	ldr	r3, [r2, #0]
 8001cc6:	f023 0301 	bic.w	r3, r3, #1
 8001cca:	6013      	str	r3, [r2, #0]
 8001ccc:	2000      	movs	r0, #0
 8001cce:	4770      	bx	lr

08001cd0 <HAL_GPIO_Init>:
 8001cd0:	e92d 4ff7 	stmdb	sp!, {r0, r1, r2, r4, r5, r6, r7, r8, r9, sl, fp, lr}
 8001cd4:	f8df 9180 	ldr.w	r9, [pc, #384]	@ 8001e58 <HAL_GPIO_Init+0x188>
 8001cd8:	4a5d      	ldr	r2, [pc, #372]	@ (8001e50 <HAL_GPIO_Init+0x180>)
 8001cda:	2300      	movs	r3, #0
 8001cdc:	680d      	ldr	r5, [r1, #0]
 8001cde:	2401      	movs	r4, #1
 8001ce0:	409c      	lsls	r4, r3
 8001ce2:	ea04 0605 	and.w	r6, r4, r5
 8001ce6:	43ac      	bics	r4, r5
 8001ce8:	f040 80a3 	bne.w	8001e32 <HAL_GPIO_Init+0x162>
 8001cec:	684d      	ldr	r5, [r1, #4]
 8001cee:	2703      	movs	r7, #3
 8001cf0:	f005 0403 	and.w	r4, r5, #3
 8001cf4:	ea4f 0843 	mov.w	r8, r3, lsl #1
 8001cf8:	fa07 fc08 	lsl.w	ip, r7, r8
 8001cfc:	1e67      	subs	r7, r4, #1
 8001cfe:	2f01      	cmp	r7, #1
 8001d00:	ea6f 0c0c 	mvn.w	ip, ip
 8001d04:	d834      	bhi.n	8001d70 <HAL_GPIO_Init+0xa0>
 8001d06:	6887      	ldr	r7, [r0, #8]
 8001d08:	ea07 0e0c 	and.w	lr, r7, ip
 8001d0c:	68cf      	ldr	r7, [r1, #12]
 8001d0e:	fa07 f708 	lsl.w	r7, r7, r8
 8001d12:	ea47 070e 	orr.w	r7, r7, lr
 8001d16:	6087      	str	r7, [r0, #8]
 8001d18:	6847      	ldr	r7, [r0, #4]
 8001d1a:	ea27 0e06 	bic.w	lr, r7, r6
 8001d1e:	f3c5 1700 	ubfx	r7, r5, #4, #1
 8001d22:	409f      	lsls	r7, r3
 8001d24:	ea47 070e 	orr.w	r7, r7, lr
 8001d28:	6047      	str	r7, [r0, #4]
 8001d2a:	68c7      	ldr	r7, [r0, #12]
 8001d2c:	ea07 0e0c 	and.w	lr, r7, ip
 8001d30:	688f      	ldr	r7, [r1, #8]
 8001d32:	fa07 f708 	lsl.w	r7, r7, r8
 8001d36:	ea47 070e 	orr.w	r7, r7, lr
 8001d3a:	2c02      	cmp	r4, #2
 8001d3c:	60c7      	str	r7, [r0, #12]
 8001d3e:	d119      	bne.n	8001d74 <HAL_GPIO_Init+0xa4>
 8001d40:	ea4f 0ad3 	mov.w	sl, r3, lsr #3
 8001d44:	eb00 0a8a 	add.w	sl, r0, sl, lsl #2
 8001d48:	f003 0b07 	and.w	fp, r3, #7
 8001d4c:	f8da 7020 	ldr.w	r7, [sl, #32]
 8001d50:	ea4f 0b8b 	mov.w	fp, fp, lsl #2
 8001d54:	f04f 0e0f 	mov.w	lr, #15
 8001d58:	fa0e fe0b 	lsl.w	lr, lr, fp
 8001d5c:	ea27 0e0e 	bic.w	lr, r7, lr
 8001d60:	690f      	ldr	r7, [r1, #16]
 8001d62:	fa07 f70b 	lsl.w	r7, r7, fp
 8001d66:	ea47 070e 	orr.w	r7, r7, lr
 8001d6a:	f8ca 7020 	str.w	r7, [sl, #32]
 8001d6e:	e001      	b.n	8001d74 <HAL_GPIO_Init+0xa4>
 8001d70:	2c03      	cmp	r4, #3
 8001d72:	d1da      	bne.n	8001d2a <HAL_GPIO_Init+0x5a>
 8001d74:	6807      	ldr	r7, [r0, #0]
 8001d76:	fa04 f408 	lsl.w	r4, r4, r8
 8001d7a:	ea07 070c 	and.w	r7, r7, ip
 8001d7e:	433c      	orrs	r4, r7
 8001d80:	f415 3f40 	tst.w	r5, #196608	@ 0x30000
 8001d84:	6004      	str	r4, [r0, #0]
 8001d86:	d054      	beq.n	8001e32 <HAL_GPIO_Init+0x162>
 8001d88:	2400      	movs	r4, #0
 8001d8a:	9401      	str	r4, [sp, #4]
 8001d8c:	f8d9 4044 	ldr.w	r4, [r9, #68]	@ 0x44
 8001d90:	f444 4480 	orr.w	r4, r4, #16384	@ 0x4000
 8001d94:	f8c9 4044 	str.w	r4, [r9, #68]	@ 0x44
 8001d98:	f8d9 4044 	ldr.w	r4, [r9, #68]	@ 0x44
 8001d9c:	f023 0703 	bic.w	r7, r3, #3
 8001da0:	f107 4780 	add.w	r7, r7, #1073741824	@ 0x40000000
 8001da4:	f404 4480 	and.w	r4, r4, #16384	@ 0x4000
 8001da8:	f507 379c 	add.w	r7, r7, #79872	@ 0x13800
 8001dac:	9401      	str	r4, [sp, #4]
 8001dae:	f003 0c03 	and.w	ip, r3, #3
 8001db2:	9c01      	ldr	r4, [sp, #4]
 8001db4:	f8d7 e008 	ldr.w	lr, [r7, #8]
 8001db8:	ea4f 0c8c 	mov.w	ip, ip, lsl #2
 8001dbc:	240f      	movs	r4, #15
 8001dbe:	fa04 f40c 	lsl.w	r4, r4, ip
 8001dc2:	ea2e 0e04 	bic.w	lr, lr, r4
 8001dc6:	4c23      	ldr	r4, [pc, #140]	@ (8001e54 <HAL_GPIO_Init+0x184>)
 8001dc8:	42a0      	cmp	r0, r4
 8001dca:	d039      	beq.n	8001e40 <HAL_GPIO_Init+0x170>
 8001dcc:	f504 6480 	add.w	r4, r4, #1024	@ 0x400
 8001dd0:	42a0      	cmp	r0, r4
 8001dd2:	d037      	beq.n	8001e44 <HAL_GPIO_Init+0x174>
 8001dd4:	f504 6480 	add.w	r4, r4, #1024	@ 0x400
 8001dd8:	42a0      	cmp	r0, r4
 8001dda:	d035      	beq.n	8001e48 <HAL_GPIO_Init+0x178>
 8001ddc:	f504 6480 	add.w	r4, r4, #1024	@ 0x400
 8001de0:	42a0      	cmp	r0, r4
 8001de2:	d033      	beq.n	8001e4c <HAL_GPIO_Init+0x17c>
 8001de4:	f504 6480 	add.w	r4, r4, #1024	@ 0x400
 8001de8:	42a0      	cmp	r0, r4
 8001dea:	bf14      	ite	ne
 8001dec:	2407      	movne	r4, #7
 8001dee:	2404      	moveq	r4, #4
 8001df0:	fa04 f40c 	lsl.w	r4, r4, ip
 8001df4:	ea44 040e 	orr.w	r4, r4, lr
 8001df8:	60bc      	str	r4, [r7, #8]
 8001dfa:	6894      	ldr	r4, [r2, #8]
 8001dfc:	43f7      	mvns	r7, r6
 8001dfe:	f415 1f80 	tst.w	r5, #1048576	@ 0x100000
 8001e02:	bf0c      	ite	eq
 8001e04:	403c      	andeq	r4, r7
 8001e06:	4334      	orrne	r4, r6
 8001e08:	6094      	str	r4, [r2, #8]
 8001e0a:	68d4      	ldr	r4, [r2, #12]
 8001e0c:	f415 1f00 	tst.w	r5, #2097152	@ 0x200000
 8001e10:	bf0c      	ite	eq
 8001e12:	403c      	andeq	r4, r7
 8001e14:	4334      	orrne	r4, r6
 8001e16:	60d4      	str	r4, [r2, #12]
 8001e18:	6854      	ldr	r4, [r2, #4]
 8001e1a:	f415 3f00 	tst.w	r5, #131072	@ 0x20000
 8001e1e:	bf0c      	ite	eq
 8001e20:	403c      	andeq	r4, r7
 8001e22:	4334      	orrne	r4, r6
 8001e24:	6054      	str	r4, [r2, #4]
 8001e26:	6814      	ldr	r4, [r2, #0]
 8001e28:	03ed      	lsls	r5, r5, #15
 8001e2a:	bf54      	ite	pl
 8001e2c:	403c      	andpl	r4, r7
 8001e2e:	4334      	orrmi	r4, r6
 8001e30:	6014      	str	r4, [r2, #0]
 8001e32:	3301      	adds	r3, #1
 8001e34:	2b10      	cmp	r3, #16
 8001e36:	f47f af51 	bne.w	8001cdc <HAL_GPIO_Init+0xc>
 8001e3a:	b003      	add	sp, #12
 8001e3c:	e8bd 8ff0 	ldmia.w	sp!, {r4, r5, r6, r7, r8, r9, sl, fp, pc}
 8001e40:	2400      	movs	r4, #0
 8001e42:	e7d5      	b.n	8001df0 <HAL_GPIO_Init+0x120>
 8001e44:	2401      	movs	r4, #1
 8001e46:	e7d3      	b.n	8001df0 <HAL_GPIO_Init+0x120>
 8001e48:	2402      	movs	r4, #2
 8001e4a:	e7d1      	b.n	8001df0 <HAL_GPIO_Init+0x120>
 8001e4c:	2403      	movs	r4, #3
 8001e4e:	e7cf      	b.n	8001df0 <HAL_GPIO_Init+0x120>
 8001e50:	40013c00 	.word	0x40013c00
 8001e54:	40020000 	.word	0x40020000
 8001e58:	40023800 	.word	0x40023800

08001e5c <HAL_GPIO_ReadPin>:
 8001e5c:	6903      	ldr	r3, [r0, #16]
 8001e5e:	4219      	tst	r1, r3
 8001e60:	bf14      	ite	ne
 8001e62:	2001      	movne	r0, #1
 8001e64:	2000      	moveq	r0, #0
 8001e66:	4770      	bx	lr

08001e68 <HAL_GPIO_WritePin>:
 8001e68:	b10a      	cbz	r2, 8001e6e <HAL_GPIO_WritePin+0x6>
 8001e6a:	6181      	str	r1, [r0, #24]
 8001e6c:	4770      	bx	lr
 8001e6e:	0409      	lsls	r1, r1, #16
 8001e70:	e7fb      	b.n	8001e6a <HAL_GPIO_WritePin+0x2>

08001e72 <HAL_GPIO_TogglePin>:
 8001e72:	6943      	ldr	r3, [r0, #20]
 8001e74:	ea01 0203 	and.w	r2, r1, r3
 8001e78:	ea21 0103 	bic.w	r1, r1, r3
 8001e7c:	ea41 4102 	orr.w	r1, r1, r2, lsl #16
 8001e80:	6181      	str	r1, [r0, #24]
 8001e82:	4770      	bx	lr

08001e84 <I2C_IsAcknowledgeFailed>:
 8001e84:	6801      	ldr	r1, [r0, #0]
 8001e86:	694b      	ldr	r3, [r1, #20]
 8001e88:	f413 6380 	ands.w	r3, r3, #1024	@ 0x400
 8001e8c:	f04f 0200 	mov.w	r2, #0
 8001e90:	d010      	beq.n	8001eb4 <I2C_IsAcknowledgeFailed+0x30>
 8001e92:	f46f 6380 	mvn.w	r3, #1024	@ 0x400
 8001e96:	614b      	str	r3, [r1, #20]
 8001e98:	2320      	movs	r3, #32
 8001e9a:	6302      	str	r2, [r0, #48]	@ 0x30
 8001e9c:	f880 303d 	strb.w	r3, [r0, #61]	@ 0x3d
 8001ea0:	f880 203e 	strb.w	r2, [r0, #62]	@ 0x3e
 8001ea4:	6c03      	ldr	r3, [r0, #64]	@ 0x40
 8001ea6:	f880 203c 	strb.w	r2, [r0, #60]	@ 0x3c
 8001eaa:	f043 0304 	orr.w	r3, r3, #4
 8001eae:	6403      	str	r3, [r0, #64]	@ 0x40
 8001eb0:	2001      	movs	r0, #1
 8001eb2:	4770      	bx	lr
 8001eb4:	4618      	mov	r0, r3
 8001eb6:	4770      	bx	lr

08001eb8 <I2C_WaitOnFlagUntilTimeout>:
 8001eb8:	e92d 46f8 	stmdb	sp!, {r3, r4, r5, r6, r7, r9, sl, lr}
 8001ebc:	4606      	mov	r6, r0
 8001ebe:	460f      	mov	r7, r1
 8001ec0:	4691      	mov	r9, r2
 8001ec2:	461d      	mov	r5, r3
 8001ec4:	ea4f 4a11 	mov.w	sl, r1, lsr #16
 8001ec8:	6833      	ldr	r3, [r6, #0]
 8001eca:	f1ba 0f01 	cmp.w	sl, #1
 8001ece:	bf0c      	ite	eq
 8001ed0:	695c      	ldreq	r4, [r3, #20]
 8001ed2:	699c      	ldrne	r4, [r3, #24]
 8001ed4:	ea27 0404 	bic.w	r4, r7, r4
 8001ed8:	b2a4      	uxth	r4, r4
 8001eda:	fab4 f484 	clz	r4, r4
 8001ede:	0964      	lsrs	r4, r4, #5
 8001ee0:	45a1      	cmp	r9, r4
 8001ee2:	d001      	beq.n	8001ee8 <I2C_WaitOnFlagUntilTimeout+0x30>
 8001ee4:	2000      	movs	r0, #0
 8001ee6:	e025      	b.n	8001f34 <I2C_WaitOnFlagUntilTimeout+0x7c>
 8001ee8:	1c6a      	adds	r2, r5, #1
 8001eea:	d0ee      	beq.n	8001eca <I2C_WaitOnFlagUntilTimeout+0x12>
 8001eec:	f7ff fe20 	bl	8001b30 <HAL_GetTick>
 8001ef0:	9b08      	ldr	r3, [sp, #32]
 8001ef2:	1ac0      	subs	r0, r0, r3
 8001ef4:	42a8      	cmp	r0, r5
 8001ef6:	d801      	bhi.n	8001efc <I2C_WaitOnFlagUntilTimeout+0x44>
 8001ef8:	2d00      	cmp	r5, #0
 8001efa:	d1e5      	bne.n	8001ec8 <I2C_WaitOnFlagUntilTimeout+0x10>
 8001efc:	6833      	ldr	r3, [r6, #0]
 8001efe:	f1ba 0f01 	cmp.w	sl, #1
 8001f02:	bf0c      	ite	eq
 8001f04:	695b      	ldreq	r3, [r3, #20]
 8001f06:	699b      	ldrne	r3, [r3, #24]
 8001f08:	ea27 0303 	bic.w	r3, r7, r3
 8001f0c:	b29b      	uxth	r3, r3
 8001f0e:	fab3 f383 	clz	r3, r3
 8001f12:	095b      	lsrs	r3, r3, #5
 8001f14:	4599      	cmp	r9, r3
 8001f16:	d1d7      	bne.n	8001ec8 <I2C_WaitOnFlagUntilTimeout+0x10>
 8001f18:	2300      	movs	r3, #0
 8001f1a:	2220      	movs	r2, #32
 8001f1c:	6333      	str	r3, [r6, #48]	@ 0x30
 8001f1e:	f886 203d 	strb.w	r2, [r6, #61]	@ 0x3d
 8001f22:	f886 303e 	strb.w	r3, [r6, #62]	@ 0x3e
 8001f26:	6c32      	ldr	r2, [r6, #64]	@ 0x40
 8001f28:	f886 303c 	strb.w	r3, [r6, #60]	@ 0x3c
 8001f2c:	f042 0220 	orr.w	r2, r2, #32
 8001f30:	6432      	str	r2, [r6, #64]	@ 0x40
 8001f32:	2001      	movs	r0, #1
 8001f34:	e8bd 86f8 	ldmia.w	sp!, {r3, r4, r5, r6, r7, r9, sl, pc}

08001f38 <I2C_WaitOnMasterAddressFlagUntilTimeout>:
 8001f38:	e92d 41f0 	stmdb	sp!, {r4, r5, r6, r7, r8, lr}
 8001f3c:	4604      	mov	r4, r0
 8001f3e:	460f      	mov	r7, r1
 8001f40:	4616      	mov	r6, r2
 8001f42:	4698      	mov	r8, r3
 8001f44:	6825      	ldr	r5, [r4, #0]
 8001f46:	6968      	ldr	r0, [r5, #20]
 8001f48:	ea27 0000 	bic.w	r0, r7, r0
 8001f4c:	b280      	uxth	r0, r0
 8001f4e:	b1c0      	cbz	r0, 8001f82 <I2C_WaitOnMasterAddressFlagUntilTimeout+0x4a>
 8001f50:	696b      	ldr	r3, [r5, #20]
 8001f52:	055a      	lsls	r2, r3, #21
 8001f54:	d517      	bpl.n	8001f86 <I2C_WaitOnMasterAddressFlagUntilTimeout+0x4e>
 8001f56:	682b      	ldr	r3, [r5, #0]
 8001f58:	f443 7300 	orr.w	r3, r3, #512	@ 0x200
 8001f5c:	602b      	str	r3, [r5, #0]
 8001f5e:	f46f 6380 	mvn.w	r3, #1024	@ 0x400
 8001f62:	616b      	str	r3, [r5, #20]
 8001f64:	2220      	movs	r2, #32
 8001f66:	2300      	movs	r3, #0
 8001f68:	6323      	str	r3, [r4, #48]	@ 0x30
 8001f6a:	f884 203d 	strb.w	r2, [r4, #61]	@ 0x3d
 8001f6e:	f884 303e 	strb.w	r3, [r4, #62]	@ 0x3e
 8001f72:	6c23      	ldr	r3, [r4, #64]	@ 0x40
 8001f74:	f043 0304 	orr.w	r3, r3, #4
 8001f78:	6423      	str	r3, [r4, #64]	@ 0x40
 8001f7a:	2300      	movs	r3, #0
 8001f7c:	f884 303c 	strb.w	r3, [r4, #60]	@ 0x3c
 8001f80:	2001      	movs	r0, #1
 8001f82:	e8bd 81f0 	ldmia.w	sp!, {r4, r5, r6, r7, r8, pc}
 8001f86:	1c73      	adds	r3, r6, #1
 8001f88:	d0dd      	beq.n	8001f46 <I2C_WaitOnMasterAddressFlagUntilTimeout+0xe>
 8001f8a:	f7ff fdd1 	bl	8001b30 <HAL_GetTick>
 8001f8e:	eba0 0008 	sub.w	r0, r0, r8
 8001f92:	42b0      	cmp	r0, r6
 8001f94:	d801      	bhi.n	8001f9a <I2C_WaitOnMasterAddressFlagUntilTimeout+0x62>
 8001f96:	2e00      	cmp	r6, #0
 8001f98:	d1d4      	bne.n	8001f44 <I2C_WaitOnMasterAddressFlagUntilTimeout+0xc>
 8001f9a:	6823      	ldr	r3, [r4, #0]
 8001f9c:	695a      	ldr	r2, [r3, #20]
 8001f9e:	ea27 0202 	bic.w	r2, r7, r2
 8001fa2:	b292      	uxth	r2, r2
 8001fa4:	2a00      	cmp	r2, #0
 8001fa6:	d0cd      	beq.n	8001f44 <I2C_WaitOnMasterAddressFlagUntilTimeout+0xc>
 8001fa8:	2300      	movs	r3, #0
 8001faa:	2220      	movs	r2, #32
 8001fac:	6323      	str	r3, [r4, #48]	@ 0x30
 8001fae:	f884 203d 	strb.w	r2, [r4, #61]	@ 0x3d
 8001fb2:	f884 303e 	strb.w	r3, [r4, #62]	@ 0x3e
 8001fb6:	6c23      	ldr	r3, [r4, #64]	@ 0x40
 8001fb8:	4313      	orrs	r3, r2
 8001fba:	e7dd      	b.n	8001f78 <I2C_WaitOnMasterAddressFlagUntilTimeout+0x40>

08001fbc <I2C_WaitOnTXEFlagUntilTimeout>:
 8001fbc:	b570      	push	{r4, r5, r6, lr}
 8001fbe:	4604      	mov	r4, r0
 8001fc0:	460d      	mov	r5, r1
 8001fc2:	4616      	mov	r6, r2
 8001fc4:	6823      	ldr	r3, [r4, #0]
 8001fc6:	695b      	ldr	r3, [r3, #20]
 8001fc8:	061b      	lsls	r3, r3, #24
 8001fca:	d501      	bpl.n	8001fd0 <I2C_WaitOnTXEFlagUntilTimeout+0x14>
 8001fcc:	2000      	movs	r0, #0
 8001fce:	e01e      	b.n	800200e <I2C_WaitOnTXEFlagUntilTimeout+0x52>
 8001fd0:	4620      	mov	r0, r4
 8001fd2:	f7ff ff57 	bl	8001e84 <I2C_IsAcknowledgeFailed>
 8001fd6:	b9c8      	cbnz	r0, 800200c <I2C_WaitOnTXEFlagUntilTimeout+0x50>
 8001fd8:	1c6a      	adds	r2, r5, #1
 8001fda:	d0f3      	beq.n	8001fc4 <I2C_WaitOnTXEFlagUntilTimeout+0x8>
 8001fdc:	f7ff fda8 	bl	8001b30 <HAL_GetTick>
 8001fe0:	1b80      	subs	r0, r0, r6
 8001fe2:	42a8      	cmp	r0, r5
 8001fe4:	d801      	bhi.n	8001fea <I2C_WaitOnTXEFlagUntilTimeout+0x2e>
 8001fe6:	2d00      	cmp	r5, #0
 8001fe8:	d1ec      	bne.n	8001fc4 <I2C_WaitOnTXEFlagUntilTimeout+0x8>
 8001fea:	6823      	ldr	r3, [r4, #0]
 8001fec:	695b      	ldr	r3, [r3, #20]
 8001fee:	f013 0380 	ands.w	r3, r3, #128	@ 0x80
 8001ff2:	d1e7      	bne.n	8001fc4 <I2C_WaitOnTXEFlagUntilTimeout+0x8>
 8001ff4:	2220      	movs	r2, #32
 8001ff6:	6323      	str	r3, [r4, #48]	@ 0x30
 8001ff8:	f884 203d 	strb.w	r2, [r4, #61]	@ 0x3d
 8001ffc:	f884 303e 	strb.w	r3, [r4, #62]	@ 0x3e
 8002000:	6c22      	ldr	r2, [r4, #64]	@ 0x40
 8002002:	f884 303c 	strb.w	r3, [r4, #60]	@ 0x3c
 8002006:	f042 0220 	orr.w	r2, r2, #32
 800200a:	6422      	str	r2, [r4, #64]	@ 0x40
 800200c:	2001      	movs	r0, #1
 800200e:	bd70      	pop	{r4, r5, r6, pc}

08002010 <I2C_WaitOnBTFFlagUntilTimeout>:
 8002010:	b570      	push	{r4, r5, r6, lr}
 8002012:	4604      	mov	r4, r0
 8002014:	460d      	mov	r5, r1
 8002016:	4616      	mov	r6, r2
 8002018:	6823      	ldr	r3, [r4, #0]
 800201a:	695b      	ldr	r3, [r3, #20]
 800201c:	075b      	lsls	r3, r3, #29
 800201e:	d501      	bpl.n	8002024 <I2C_WaitOnBTFFlagUntilTimeout+0x14>
 8002020:	2000      	movs	r0, #0
 8002022:	e01e      	b.n	8002062 <I2C_WaitOnBTFFlagUntilTimeout+0x52>
 8002024:	4620      	mov	r0, r4
 8002026:	f7ff ff2d 	bl	8001e84 <I2C_IsAcknowledgeFailed>
 800202a:	b9c8      	cbnz	r0, 8002060 <I2C_WaitOnBTFFlagUntilTimeout+0x50>
 800202c:	1c6a      	adds	r2, r5, #1
 800202e:	d0f3      	beq.n	8002018 <I2C_WaitOnBTFFlagUntilTimeout+0x8>
 8002030:	f7ff fd7e 	bl	8001b30 <HAL_GetTick>
 8002034:	1b80      	subs	r0, r0, r6
 8002036:	42a8      	cmp	r0, r5
 8002038:	d801      	bhi.n	800203e <I2C_WaitOnBTFFlagUntilTimeout+0x2e>
 800203a:	2d00      	cmp	r5, #0
 800203c:	d1ec      	bne.n	8002018 <I2C_WaitOnBTFFlagUntilTimeout+0x8>
 800203e:	6823      	ldr	r3, [r4, #0]
 8002040:	695b      	ldr	r3, [r3, #20]
 8002042:	f013 0304 	ands.w	r3, r3, #4
 8002046:	d1e7      	bne.n	8002018 <I2C_WaitOnBTFFlagUntilTimeout+0x8>
 8002048:	2220      	movs	r2, #32
 800204a:	6323      	str	r3, [r4, #48]	@ 0x30
 800204c:	f884 203d 	strb.w	r2, [r4, #61]	@ 0x3d
 8002050:	f884 303e 	strb.w	r3, [r4, #62]	@ 0x3e
 8002054:	6c22      	ldr	r2, [r4, #64]	@ 0x40
 8002056:	f884 303c 	strb.w	r3, [r4, #60]	@ 0x3c
 800205a:	f042 0220 	orr.w	r2, r2, #32
 800205e:	6422      	str	r2, [r4, #64]	@ 0x40
 8002060:	2001      	movs	r0, #1
 8002062:	bd70      	pop	{r4, r5, r6, pc}

08002064 <HAL_I2C_Init>:
 8002064:	b570      	push	{r4, r5, r6, lr}
 8002066:	4604      	mov	r4, r0
 8002068:	b908      	cbnz	r0, 800206e <HAL_I2C_Init+0xa>
 800206a:	2001      	movs	r0, #1
 800206c:	bd70      	pop	{r4, r5, r6, pc}
 800206e:	f890 303d 	ldrb.w	r3, [r0, #61]	@ 0x3d
 8002072:	f003 02ff 	and.w	r2, r3, #255	@ 0xff
 8002076:	b91b      	cbnz	r3, 8002080 <HAL_I2C_Init+0x1c>
 8002078:	f880 203c 	strb.w	r2, [r0, #60]	@ 0x3c
 800207c:	f7ff fbb8 	bl	80017f0 <HAL_I2C_MspInit>
 8002080:	2324      	movs	r3, #36	@ 0x24
 8002082:	f884 303d 	strb.w	r3, [r4, #61]	@ 0x3d
 8002086:	6823      	ldr	r3, [r4, #0]
 8002088:	681a      	ldr	r2, [r3, #0]
 800208a:	f022 0201 	bic.w	r2, r2, #1
 800208e:	601a      	str	r2, [r3, #0]
 8002090:	681a      	ldr	r2, [r3, #0]
 8002092:	f442 4200 	orr.w	r2, r2, #32768	@ 0x8000
 8002096:	601a      	str	r2, [r3, #0]
 8002098:	681a      	ldr	r2, [r3, #0]
 800209a:	f422 4200 	bic.w	r2, r2, #32768	@ 0x8000
 800209e:	601a      	str	r2, [r3, #0]
 80020a0:	f000 fc38 	bl	8002914 <HAL_RCC_GetPCLK1Freq>
 80020a4:	4b3f      	ldr	r3, [pc, #252]	@ (80021a4 <HAL_I2C_Init+0x140>)
 80020a6:	6865      	ldr	r5, [r4, #4]
 80020a8:	429d      	cmp	r5, r3
 80020aa:	bf94      	ite	ls
 80020ac:	4b3e      	ldrls	r3, [pc, #248]	@ (80021a8 <HAL_I2C_Init+0x144>)
 80020ae:	4b3f      	ldrhi	r3, [pc, #252]	@ (80021ac <HAL_I2C_Init+0x148>)
 80020b0:	4298      	cmp	r0, r3
 80020b2:	bf8c      	ite	hi
 80020b4:	2300      	movhi	r3, #0
 80020b6:	2301      	movls	r3, #1
 80020b8:	2b00      	cmp	r3, #0
 80020ba:	d1d6      	bne.n	800206a <HAL_I2C_Init+0x6>
 80020bc:	6822      	ldr	r2, [r4, #0]
 80020be:	4e39      	ldr	r6, [pc, #228]	@ (80021a4 <HAL_I2C_Init+0x140>)
 80020c0:	6851      	ldr	r1, [r2, #4]
 80020c2:	4b3b      	ldr	r3, [pc, #236]	@ (80021b0 <HAL_I2C_Init+0x14c>)
 80020c4:	fbb0 f3f3 	udiv	r3, r0, r3
 80020c8:	f021 013f 	bic.w	r1, r1, #63	@ 0x3f
 80020cc:	4319      	orrs	r1, r3
 80020ce:	42b5      	cmp	r5, r6
 80020d0:	6051      	str	r1, [r2, #4]
 80020d2:	bf88      	it	hi
 80020d4:	f44f 7696 	movhi.w	r6, #300	@ 0x12c
 80020d8:	6a11      	ldr	r1, [r2, #32]
 80020da:	bf88      	it	hi
 80020dc:	4373      	mulhi	r3, r6
 80020de:	f021 013f 	bic.w	r1, r1, #63	@ 0x3f
 80020e2:	bf84      	itt	hi
 80020e4:	f44f 767a 	movhi.w	r6, #1000	@ 0x3e8
 80020e8:	fbb3 f3f6 	udivhi	r3, r3, r6
 80020ec:	3301      	adds	r3, #1
 80020ee:	430b      	orrs	r3, r1
 80020f0:	6213      	str	r3, [r2, #32]
 80020f2:	69d1      	ldr	r1, [r2, #28]
 80020f4:	1e43      	subs	r3, r0, #1
 80020f6:	482b      	ldr	r0, [pc, #172]	@ (80021a4 <HAL_I2C_Init+0x140>)
 80020f8:	f421 414f 	bic.w	r1, r1, #52992	@ 0xcf00
 80020fc:	4285      	cmp	r5, r0
 80020fe:	f021 01ff 	bic.w	r1, r1, #255	@ 0xff
 8002102:	d832      	bhi.n	800216a <HAL_I2C_Init+0x106>
 8002104:	006d      	lsls	r5, r5, #1
 8002106:	f640 70fc 	movw	r0, #4092	@ 0xffc
 800210a:	fbb3 f3f5 	udiv	r3, r3, r5
 800210e:	3301      	adds	r3, #1
 8002110:	4203      	tst	r3, r0
 8002112:	d042      	beq.n	800219a <HAL_I2C_Init+0x136>
 8002114:	f3c3 030b 	ubfx	r3, r3, #0, #12
 8002118:	4319      	orrs	r1, r3
 800211a:	61d1      	str	r1, [r2, #28]
 800211c:	e9d4 3007 	ldrd	r3, r0, [r4, #28]
 8002120:	6811      	ldr	r1, [r2, #0]
 8002122:	4303      	orrs	r3, r0
 8002124:	f021 01c0 	bic.w	r1, r1, #192	@ 0xc0
 8002128:	430b      	orrs	r3, r1
 800212a:	6013      	str	r3, [r2, #0]
 800212c:	6891      	ldr	r1, [r2, #8]
 800212e:	e9d4 0303 	ldrd	r0, r3, [r4, #12]
 8002132:	f421 4103 	bic.w	r1, r1, #33536	@ 0x8300
 8002136:	4303      	orrs	r3, r0
 8002138:	f021 01ff 	bic.w	r1, r1, #255	@ 0xff
 800213c:	430b      	orrs	r3, r1
 800213e:	6093      	str	r3, [r2, #8]
 8002140:	e9d4 3005 	ldrd	r3, r0, [r4, #20]
 8002144:	68d1      	ldr	r1, [r2, #12]
 8002146:	4303      	orrs	r3, r0
 8002148:	f021 01ff 	bic.w	r1, r1, #255	@ 0xff
 800214c:	430b      	orrs	r3, r1
 800214e:	60d3      	str	r3, [r2, #12]
 8002150:	6813      	ldr	r3, [r2, #0]
 8002152:	f043 0301 	orr.w	r3, r3, #1
 8002156:	6013      	str	r3, [r2, #0]
 8002158:	2000      	movs	r0, #0
 800215a:	2320      	movs	r3, #32
 800215c:	6420      	str	r0, [r4, #64]	@ 0x40
 800215e:	f884 303d 	strb.w	r3, [r4, #61]	@ 0x3d
 8002162:	6320      	str	r0, [r4, #48]	@ 0x30
 8002164:	f884 003e 	strb.w	r0, [r4, #62]	@ 0x3e
 8002168:	e780      	b.n	800206c <HAL_I2C_Init+0x8>
 800216a:	68a0      	ldr	r0, [r4, #8]
 800216c:	b950      	cbnz	r0, 8002184 <HAL_I2C_Init+0x120>
 800216e:	eb05 0545 	add.w	r5, r5, r5, lsl #1
 8002172:	fbb3 f3f5 	udiv	r3, r3, r5
 8002176:	3301      	adds	r3, #1
 8002178:	f3c3 030b 	ubfx	r3, r3, #0, #12
 800217c:	b17b      	cbz	r3, 800219e <HAL_I2C_Init+0x13a>
 800217e:	f443 4300 	orr.w	r3, r3, #32768	@ 0x8000
 8002182:	e7c9      	b.n	8002118 <HAL_I2C_Init+0xb4>
 8002184:	2019      	movs	r0, #25
 8002186:	4368      	muls	r0, r5
 8002188:	fbb3 f3f0 	udiv	r3, r3, r0
 800218c:	3301      	adds	r3, #1
 800218e:	f3c3 030b 	ubfx	r3, r3, #0, #12
 8002192:	b123      	cbz	r3, 800219e <HAL_I2C_Init+0x13a>
 8002194:	f443 4340 	orr.w	r3, r3, #49152	@ 0xc000
 8002198:	e7be      	b.n	8002118 <HAL_I2C_Init+0xb4>
 800219a:	2304      	movs	r3, #4
 800219c:	e7bc      	b.n	8002118 <HAL_I2C_Init+0xb4>
 800219e:	2301      	movs	r3, #1
 80021a0:	e7ba      	b.n	8002118 <HAL_I2C_Init+0xb4>
 80021a2:	bf00      	nop
 80021a4:	000186a0 	.word	0x000186a0
 80021a8:	001e847f 	.word	0x001e847f
 80021ac:	003d08ff 	.word	0x003d08ff
 80021b0:	000f4240 	.word	0x000f4240

080021b4 <HAL_I2C_Master_Transmit>:
 80021b4:	e92d 43f0 	stmdb	sp!, {r4, r5, r6, r7, r8, r9, lr}
 80021b8:	4604      	mov	r4, r0
 80021ba:	b085      	sub	sp, #20
 80021bc:	4698      	mov	r8, r3
 80021be:	9f0c      	ldr	r7, [sp, #48]	@ 0x30
 80021c0:	460d      	mov	r5, r1
 80021c2:	4691      	mov	r9, r2
 80021c4:	f7ff fcb4 	bl	8001b30 <HAL_GetTick>
 80021c8:	f894 303d 	ldrb.w	r3, [r4, #61]	@ 0x3d
 80021cc:	2b20      	cmp	r3, #32
 80021ce:	4606      	mov	r6, r0
 80021d0:	d004      	beq.n	80021dc <HAL_I2C_Master_Transmit+0x28>
 80021d2:	2502      	movs	r5, #2
 80021d4:	4628      	mov	r0, r5
 80021d6:	b005      	add	sp, #20
 80021d8:	e8bd 83f0 	ldmia.w	sp!, {r4, r5, r6, r7, r8, r9, pc}
 80021dc:	9000      	str	r0, [sp, #0]
 80021de:	495e      	ldr	r1, [pc, #376]	@ (8002358 <HAL_I2C_Master_Transmit+0x1a4>)
 80021e0:	2319      	movs	r3, #25
 80021e2:	2201      	movs	r2, #1
 80021e4:	4620      	mov	r0, r4
 80021e6:	f7ff fe67 	bl	8001eb8 <I2C_WaitOnFlagUntilTimeout>
 80021ea:	2800      	cmp	r0, #0
 80021ec:	d1f1      	bne.n	80021d2 <HAL_I2C_Master_Transmit+0x1e>
 80021ee:	f894 303c 	ldrb.w	r3, [r4, #60]	@ 0x3c
 80021f2:	2b01      	cmp	r3, #1
 80021f4:	d0ed      	beq.n	80021d2 <HAL_I2C_Master_Transmit+0x1e>
 80021f6:	6821      	ldr	r1, [r4, #0]
 80021f8:	2301      	movs	r3, #1
 80021fa:	f884 303c 	strb.w	r3, [r4, #60]	@ 0x3c
 80021fe:	680b      	ldr	r3, [r1, #0]
 8002200:	07da      	lsls	r2, r3, #31
 8002202:	bf5e      	ittt	pl
 8002204:	680b      	ldrpl	r3, [r1, #0]
 8002206:	f043 0301 	orrpl.w	r3, r3, #1
 800220a:	600b      	strpl	r3, [r1, #0]
 800220c:	680b      	ldr	r3, [r1, #0]
 800220e:	f423 6300 	bic.w	r3, r3, #2048	@ 0x800
 8002212:	600b      	str	r3, [r1, #0]
 8002214:	2321      	movs	r3, #33	@ 0x21
 8002216:	f884 303d 	strb.w	r3, [r4, #61]	@ 0x3d
 800221a:	2310      	movs	r3, #16
 800221c:	f884 303e 	strb.w	r3, [r4, #62]	@ 0x3e
 8002220:	2300      	movs	r3, #0
 8002222:	6423      	str	r3, [r4, #64]	@ 0x40
 8002224:	f8a4 802a 	strh.w	r8, [r4, #42]	@ 0x2a
 8002228:	8d63      	ldrh	r3, [r4, #42]	@ 0x2a
 800222a:	8523      	strh	r3, [r4, #40]	@ 0x28
 800222c:	4b4b      	ldr	r3, [pc, #300]	@ (800235c <HAL_I2C_Master_Transmit+0x1a8>)
 800222e:	62e3      	str	r3, [r4, #44]	@ 0x2c
 8002230:	6ae3      	ldr	r3, [r4, #44]	@ 0x2c
 8002232:	f8c4 9024 	str.w	r9, [r4, #36]	@ 0x24
 8002236:	2b08      	cmp	r3, #8
 8002238:	d004      	beq.n	8002244 <HAL_I2C_Master_Transmit+0x90>
 800223a:	2b01      	cmp	r3, #1
 800223c:	d002      	beq.n	8002244 <HAL_I2C_Master_Transmit+0x90>
 800223e:	f513 3f80 	cmn.w	r3, #65536	@ 0x10000
 8002242:	d104      	bne.n	800224e <HAL_I2C_Master_Transmit+0x9a>
 8002244:	680b      	ldr	r3, [r1, #0]
 8002246:	f443 7380 	orr.w	r3, r3, #256	@ 0x100
 800224a:	600b      	str	r3, [r1, #0]
 800224c:	e002      	b.n	8002254 <HAL_I2C_Master_Transmit+0xa0>
 800224e:	6b23      	ldr	r3, [r4, #48]	@ 0x30
 8002250:	2b12      	cmp	r3, #18
 8002252:	d0f7      	beq.n	8002244 <HAL_I2C_Master_Transmit+0x90>
 8002254:	2200      	movs	r2, #0
 8002256:	9600      	str	r6, [sp, #0]
 8002258:	463b      	mov	r3, r7
 800225a:	f04f 1101 	mov.w	r1, #65537	@ 0x10001
 800225e:	4620      	mov	r0, r4
 8002260:	f7ff fe2a 	bl	8001eb8 <I2C_WaitOnFlagUntilTimeout>
 8002264:	6822      	ldr	r2, [r4, #0]
 8002266:	b140      	cbz	r0, 800227a <HAL_I2C_Master_Transmit+0xc6>
 8002268:	6813      	ldr	r3, [r2, #0]
 800226a:	05db      	lsls	r3, r3, #23
 800226c:	d401      	bmi.n	8002272 <HAL_I2C_Master_Transmit+0xbe>
 800226e:	2501      	movs	r5, #1
 8002270:	e7b0      	b.n	80021d4 <HAL_I2C_Master_Transmit+0x20>
 8002272:	f44f 7300 	mov.w	r3, #512	@ 0x200
 8002276:	6423      	str	r3, [r4, #64]	@ 0x40
 8002278:	e7f9      	b.n	800226e <HAL_I2C_Master_Transmit+0xba>
 800227a:	6923      	ldr	r3, [r4, #16]
 800227c:	f5b3 4f80 	cmp.w	r3, #16384	@ 0x4000
 8002280:	d121      	bne.n	80022c6 <HAL_I2C_Master_Transmit+0x112>
 8002282:	f005 05fe 	and.w	r5, r5, #254	@ 0xfe
 8002286:	6115      	str	r5, [r2, #16]
 8002288:	4935      	ldr	r1, [pc, #212]	@ (8002360 <HAL_I2C_Master_Transmit+0x1ac>)
 800228a:	4633      	mov	r3, r6
 800228c:	463a      	mov	r2, r7
 800228e:	4620      	mov	r0, r4
 8002290:	f7ff fe52 	bl	8001f38 <I2C_WaitOnMasterAddressFlagUntilTimeout>
 8002294:	4605      	mov	r5, r0
 8002296:	2800      	cmp	r0, #0
 8002298:	d1e9      	bne.n	800226e <HAL_I2C_Master_Transmit+0xba>
 800229a:	6823      	ldr	r3, [r4, #0]
 800229c:	9003      	str	r0, [sp, #12]
 800229e:	695a      	ldr	r2, [r3, #20]
 80022a0:	9203      	str	r2, [sp, #12]
 80022a2:	699b      	ldr	r3, [r3, #24]
 80022a4:	9303      	str	r3, [sp, #12]
 80022a6:	9b03      	ldr	r3, [sp, #12]
 80022a8:	8d23      	ldrh	r3, [r4, #40]	@ 0x28
 80022aa:	b9f3      	cbnz	r3, 80022ea <HAL_I2C_Master_Transmit+0x136>
 80022ac:	6821      	ldr	r1, [r4, #0]
 80022ae:	680a      	ldr	r2, [r1, #0]
 80022b0:	f442 7200 	orr.w	r2, r2, #512	@ 0x200
 80022b4:	600a      	str	r2, [r1, #0]
 80022b6:	2220      	movs	r2, #32
 80022b8:	f884 203d 	strb.w	r2, [r4, #61]	@ 0x3d
 80022bc:	f884 303c 	strb.w	r3, [r4, #60]	@ 0x3c
 80022c0:	f884 303e 	strb.w	r3, [r4, #62]	@ 0x3e
 80022c4:	e786      	b.n	80021d4 <HAL_I2C_Master_Transmit+0x20>
 80022c6:	11eb      	asrs	r3, r5, #7
 80022c8:	f003 0306 	and.w	r3, r3, #6
 80022cc:	f043 03f0 	orr.w	r3, r3, #240	@ 0xf0
 80022d0:	6113      	str	r3, [r2, #16]
 80022d2:	4924      	ldr	r1, [pc, #144]	@ (8002364 <HAL_I2C_Master_Transmit+0x1b0>)
 80022d4:	4633      	mov	r3, r6
 80022d6:	463a      	mov	r2, r7
 80022d8:	4620      	mov	r0, r4
 80022da:	f7ff fe2d 	bl	8001f38 <I2C_WaitOnMasterAddressFlagUntilTimeout>
 80022de:	2800      	cmp	r0, #0
 80022e0:	d1c5      	bne.n	800226e <HAL_I2C_Master_Transmit+0xba>
 80022e2:	6823      	ldr	r3, [r4, #0]
 80022e4:	b2ed      	uxtb	r5, r5
 80022e6:	611d      	str	r5, [r3, #16]
 80022e8:	e7ce      	b.n	8002288 <HAL_I2C_Master_Transmit+0xd4>
 80022ea:	4632      	mov	r2, r6
 80022ec:	4639      	mov	r1, r7
 80022ee:	4620      	mov	r0, r4
 80022f0:	f7ff fe64 	bl	8001fbc <I2C_WaitOnTXEFlagUntilTimeout>
 80022f4:	b140      	cbz	r0, 8002308 <HAL_I2C_Master_Transmit+0x154>
 80022f6:	6c23      	ldr	r3, [r4, #64]	@ 0x40
 80022f8:	2b04      	cmp	r3, #4
 80022fa:	d1b8      	bne.n	800226e <HAL_I2C_Master_Transmit+0xba>
 80022fc:	6822      	ldr	r2, [r4, #0]
 80022fe:	6813      	ldr	r3, [r2, #0]
 8002300:	f443 7300 	orr.w	r3, r3, #512	@ 0x200
 8002304:	6013      	str	r3, [r2, #0]
 8002306:	e7b2      	b.n	800226e <HAL_I2C_Master_Transmit+0xba>
 8002308:	6a63      	ldr	r3, [r4, #36]	@ 0x24
 800230a:	6820      	ldr	r0, [r4, #0]
 800230c:	461a      	mov	r2, r3
 800230e:	f812 1b01 	ldrb.w	r1, [r2], #1
 8002312:	6101      	str	r1, [r0, #16]
 8002314:	6262      	str	r2, [r4, #36]	@ 0x24
 8002316:	8d62      	ldrh	r2, [r4, #42]	@ 0x2a
 8002318:	3a01      	subs	r2, #1
 800231a:	b292      	uxth	r2, r2
 800231c:	8562      	strh	r2, [r4, #42]	@ 0x2a
 800231e:	8d22      	ldrh	r2, [r4, #40]	@ 0x28
 8002320:	f8d0 c014 	ldr.w	ip, [r0, #20]
 8002324:	1e51      	subs	r1, r2, #1
 8002326:	b289      	uxth	r1, r1
 8002328:	f01c 0f04 	tst.w	ip, #4
 800232c:	8521      	strh	r1, [r4, #40]	@ 0x28
 800232e:	d00a      	beq.n	8002346 <HAL_I2C_Master_Transmit+0x192>
 8002330:	b149      	cbz	r1, 8002346 <HAL_I2C_Master_Transmit+0x192>
 8002332:	7859      	ldrb	r1, [r3, #1]
 8002334:	6101      	str	r1, [r0, #16]
 8002336:	3302      	adds	r3, #2
 8002338:	6263      	str	r3, [r4, #36]	@ 0x24
 800233a:	8d63      	ldrh	r3, [r4, #42]	@ 0x2a
 800233c:	3b01      	subs	r3, #1
 800233e:	b29b      	uxth	r3, r3
 8002340:	3a02      	subs	r2, #2
 8002342:	8563      	strh	r3, [r4, #42]	@ 0x2a
 8002344:	8522      	strh	r2, [r4, #40]	@ 0x28
 8002346:	4632      	mov	r2, r6
 8002348:	4639      	mov	r1, r7
 800234a:	4620      	mov	r0, r4
 800234c:	f7ff fe60 	bl	8002010 <I2C_WaitOnBTFFlagUntilTimeout>
 8002350:	2800      	cmp	r0, #0
 8002352:	d0a9      	beq.n	80022a8 <HAL_I2C_Master_Transmit+0xf4>
 8002354:	e7cf      	b.n	80022f6 <HAL_I2C_Master_Transmit+0x142>
 8002356:	bf00      	nop
 8002358:	00100002 	.word	0x00100002
 800235c:	ffff0000 	.word	0xffff0000
 8002360:	00010002 	.word	0x00010002
 8002364:	00010008 	.word	0x00010008

08002368 <HAL_IWDG_Refresh>:
 8002368:	6803      	ldr	r3, [r0, #0]
 800236a:	f64a 22aa 	movw	r2, #43690	@ 0xaaaa
 800236e:	601a      	str	r2, [r3, #0]
 8002370:	2000      	movs	r0, #0
 8002372:	4770      	bx	lr

08002374 <HAL_PWR_EnableBkUpAccess>:
 8002374:	4b04      	ldr	r3, [pc, #16]	@ (8002388 <HAL_PWR_EnableBkUpAccess+0x14>)
 8002376:	2201      	movs	r2, #1
 8002378:	621a      	str	r2, [r3, #32]
 800237a:	4b04      	ldr	r3, [pc, #16]	@ (800238c <HAL_PWR_EnableBkUpAccess+0x18>)
 800237c:	b082      	sub	sp, #8
 800237e:	681b      	ldr	r3, [r3, #0]
 8002380:	9301      	str	r3, [sp, #4]
 8002382:	9b01      	ldr	r3, [sp, #4]
 8002384:	b002      	add	sp, #8
 8002386:	4770      	bx	lr
 8002388:	420e0000 	.word	0x420e0000
 800238c:	40007000 	.word	0x40007000

08002390 <HAL_RCC_OscConfig>:
 8002390:	e92d 41f3 	stmdb	sp!, {r0, r1, r4, r5, r6, r7, r8, lr}
 8002394:	4604      	mov	r4, r0
 8002396:	b340      	cbz	r0, 80023ea <HAL_RCC_OscConfig+0x5a>
 8002398:	6803      	ldr	r3, [r0, #0]
 800239a:	07de      	lsls	r6, r3, #31
 800239c:	d410      	bmi.n	80023c0 <HAL_RCC_OscConfig+0x30>
 800239e:	6823      	ldr	r3, [r4, #0]
 80023a0:	079d      	lsls	r5, r3, #30
 80023a2:	d45b      	bmi.n	800245c <HAL_RCC_OscConfig+0xcc>
 80023a4:	6823      	ldr	r3, [r4, #0]
 80023a6:	0719      	lsls	r1, r3, #28
 80023a8:	f100 809d 	bmi.w	80024e6 <HAL_RCC_OscConfig+0x156>
 80023ac:	6823      	ldr	r3, [r4, #0]
 80023ae:	075a      	lsls	r2, r3, #29
 80023b0:	f100 80bd 	bmi.w	800252e <HAL_RCC_OscConfig+0x19e>
 80023b4:	69a3      	ldr	r3, [r4, #24]
 80023b6:	2b00      	cmp	r3, #0
 80023b8:	f040 8124 	bne.w	8002604 <HAL_RCC_OscConfig+0x274>
 80023bc:	2000      	movs	r0, #0
 80023be:	e02c      	b.n	800241a <HAL_RCC_OscConfig+0x8a>
 80023c0:	4b8d      	ldr	r3, [pc, #564]	@ (80025f8 <HAL_RCC_OscConfig+0x268>)
 80023c2:	689a      	ldr	r2, [r3, #8]
 80023c4:	f002 020c 	and.w	r2, r2, #12
 80023c8:	2a04      	cmp	r2, #4
 80023ca:	d007      	beq.n	80023dc <HAL_RCC_OscConfig+0x4c>
 80023cc:	689a      	ldr	r2, [r3, #8]
 80023ce:	f002 020c 	and.w	r2, r2, #12
 80023d2:	2a08      	cmp	r2, #8
 80023d4:	d10b      	bne.n	80023ee <HAL_RCC_OscConfig+0x5e>
 80023d6:	685b      	ldr	r3, [r3, #4]
 80023d8:	0259      	lsls	r1, r3, #9
 80023da:	d508      	bpl.n	80023ee <HAL_RCC_OscConfig+0x5e>
 80023dc:	4b86      	ldr	r3, [pc, #536]	@ (80025f8 <HAL_RCC_OscConfig+0x268>)
 80023de:	681b      	ldr	r3, [r3, #0]
 80023e0:	039a      	lsls	r2, r3, #14
 80023e2:	d5dc      	bpl.n	800239e <HAL_RCC_OscConfig+0xe>
 80023e4:	6863      	ldr	r3, [r4, #4]
 80023e6:	2b00      	cmp	r3, #0
 80023e8:	d1d9      	bne.n	800239e <HAL_RCC_OscConfig+0xe>
 80023ea:	2001      	movs	r0, #1
 80023ec:	e015      	b.n	800241a <HAL_RCC_OscConfig+0x8a>
 80023ee:	6863      	ldr	r3, [r4, #4]
 80023f0:	4d81      	ldr	r5, [pc, #516]	@ (80025f8 <HAL_RCC_OscConfig+0x268>)
 80023f2:	f5b3 3f80 	cmp.w	r3, #65536	@ 0x10000
 80023f6:	d113      	bne.n	8002420 <HAL_RCC_OscConfig+0x90>
 80023f8:	682b      	ldr	r3, [r5, #0]
 80023fa:	f443 3380 	orr.w	r3, r3, #65536	@ 0x10000
 80023fe:	602b      	str	r3, [r5, #0]
 8002400:	f7ff fb96 	bl	8001b30 <HAL_GetTick>
 8002404:	4e7c      	ldr	r6, [pc, #496]	@ (80025f8 <HAL_RCC_OscConfig+0x268>)
 8002406:	4605      	mov	r5, r0
 8002408:	6833      	ldr	r3, [r6, #0]
 800240a:	039b      	lsls	r3, r3, #14
 800240c:	d4c7      	bmi.n	800239e <HAL_RCC_OscConfig+0xe>
 800240e:	f7ff fb8f 	bl	8001b30 <HAL_GetTick>
 8002412:	1b40      	subs	r0, r0, r5
 8002414:	2864      	cmp	r0, #100	@ 0x64
 8002416:	d9f7      	bls.n	8002408 <HAL_RCC_OscConfig+0x78>
 8002418:	2003      	movs	r0, #3
 800241a:	b002      	add	sp, #8
 800241c:	e8bd 81f0 	ldmia.w	sp!, {r4, r5, r6, r7, r8, pc}
 8002420:	f5b3 2fa0 	cmp.w	r3, #327680	@ 0x50000
 8002424:	d104      	bne.n	8002430 <HAL_RCC_OscConfig+0xa0>
 8002426:	682b      	ldr	r3, [r5, #0]
 8002428:	f443 2380 	orr.w	r3, r3, #262144	@ 0x40000
 800242c:	602b      	str	r3, [r5, #0]
 800242e:	e7e3      	b.n	80023f8 <HAL_RCC_OscConfig+0x68>
 8002430:	682a      	ldr	r2, [r5, #0]
 8002432:	f422 3280 	bic.w	r2, r2, #65536	@ 0x10000
 8002436:	602a      	str	r2, [r5, #0]
 8002438:	682a      	ldr	r2, [r5, #0]
 800243a:	f422 2280 	bic.w	r2, r2, #262144	@ 0x40000
 800243e:	602a      	str	r2, [r5, #0]
 8002440:	2b00      	cmp	r3, #0
 8002442:	d1dd      	bne.n	8002400 <HAL_RCC_OscConfig+0x70>
 8002444:	f7ff fb74 	bl	8001b30 <HAL_GetTick>
 8002448:	4606      	mov	r6, r0
 800244a:	682b      	ldr	r3, [r5, #0]
 800244c:	039f      	lsls	r7, r3, #14
 800244e:	d5a6      	bpl.n	800239e <HAL_RCC_OscConfig+0xe>
 8002450:	f7ff fb6e 	bl	8001b30 <HAL_GetTick>
 8002454:	1b80      	subs	r0, r0, r6
 8002456:	2864      	cmp	r0, #100	@ 0x64
 8002458:	d9f7      	bls.n	800244a <HAL_RCC_OscConfig+0xba>
 800245a:	e7dd      	b.n	8002418 <HAL_RCC_OscConfig+0x88>
 800245c:	4b66      	ldr	r3, [pc, #408]	@ (80025f8 <HAL_RCC_OscConfig+0x268>)
 800245e:	689a      	ldr	r2, [r3, #8]
 8002460:	f012 0f0c 	tst.w	r2, #12
 8002464:	d007      	beq.n	8002476 <HAL_RCC_OscConfig+0xe6>
 8002466:	689a      	ldr	r2, [r3, #8]
 8002468:	f002 020c 	and.w	r2, r2, #12
 800246c:	2a08      	cmp	r2, #8
 800246e:	d111      	bne.n	8002494 <HAL_RCC_OscConfig+0x104>
 8002470:	685b      	ldr	r3, [r3, #4]
 8002472:	025d      	lsls	r5, r3, #9
 8002474:	d40e      	bmi.n	8002494 <HAL_RCC_OscConfig+0x104>
 8002476:	4a60      	ldr	r2, [pc, #384]	@ (80025f8 <HAL_RCC_OscConfig+0x268>)
 8002478:	6813      	ldr	r3, [r2, #0]
 800247a:	0799      	lsls	r1, r3, #30
 800247c:	d502      	bpl.n	8002484 <HAL_RCC_OscConfig+0xf4>
 800247e:	68e3      	ldr	r3, [r4, #12]
 8002480:	2b01      	cmp	r3, #1
 8002482:	d1b2      	bne.n	80023ea <HAL_RCC_OscConfig+0x5a>
 8002484:	6813      	ldr	r3, [r2, #0]
 8002486:	6921      	ldr	r1, [r4, #16]
 8002488:	f023 03f8 	bic.w	r3, r3, #248	@ 0xf8
 800248c:	ea43 03c1 	orr.w	r3, r3, r1, lsl #3
 8002490:	6013      	str	r3, [r2, #0]
 8002492:	e787      	b.n	80023a4 <HAL_RCC_OscConfig+0x14>
 8002494:	68e2      	ldr	r2, [r4, #12]
 8002496:	4b59      	ldr	r3, [pc, #356]	@ (80025fc <HAL_RCC_OscConfig+0x26c>)
 8002498:	b1b2      	cbz	r2, 80024c8 <HAL_RCC_OscConfig+0x138>
 800249a:	2201      	movs	r2, #1
 800249c:	601a      	str	r2, [r3, #0]
 800249e:	f7ff fb47 	bl	8001b30 <HAL_GetTick>
 80024a2:	4d55      	ldr	r5, [pc, #340]	@ (80025f8 <HAL_RCC_OscConfig+0x268>)
 80024a4:	4606      	mov	r6, r0
 80024a6:	682b      	ldr	r3, [r5, #0]
 80024a8:	079b      	lsls	r3, r3, #30
 80024aa:	d507      	bpl.n	80024bc <HAL_RCC_OscConfig+0x12c>
 80024ac:	682b      	ldr	r3, [r5, #0]
 80024ae:	6922      	ldr	r2, [r4, #16]
 80024b0:	f023 03f8 	bic.w	r3, r3, #248	@ 0xf8
 80024b4:	ea43 03c2 	orr.w	r3, r3, r2, lsl #3
 80024b8:	602b      	str	r3, [r5, #0]
 80024ba:	e773      	b.n	80023a4 <HAL_RCC_OscConfig+0x14>
 80024bc:	f7ff fb38 	bl	8001b30 <HAL_GetTick>
 80024c0:	1b80      	subs	r0, r0, r6
 80024c2:	2802      	cmp	r0, #2
 80024c4:	d9ef      	bls.n	80024a6 <HAL_RCC_OscConfig+0x116>
 80024c6:	e7a7      	b.n	8002418 <HAL_RCC_OscConfig+0x88>
 80024c8:	601a      	str	r2, [r3, #0]
 80024ca:	f7ff fb31 	bl	8001b30 <HAL_GetTick>
 80024ce:	4e4a      	ldr	r6, [pc, #296]	@ (80025f8 <HAL_RCC_OscConfig+0x268>)
 80024d0:	4605      	mov	r5, r0
 80024d2:	6833      	ldr	r3, [r6, #0]
 80024d4:	079f      	lsls	r7, r3, #30
 80024d6:	f57f af65 	bpl.w	80023a4 <HAL_RCC_OscConfig+0x14>
 80024da:	f7ff fb29 	bl	8001b30 <HAL_GetTick>
 80024de:	1b40      	subs	r0, r0, r5
 80024e0:	2802      	cmp	r0, #2
 80024e2:	d9f6      	bls.n	80024d2 <HAL_RCC_OscConfig+0x142>
 80024e4:	e798      	b.n	8002418 <HAL_RCC_OscConfig+0x88>
 80024e6:	6962      	ldr	r2, [r4, #20]
 80024e8:	4b44      	ldr	r3, [pc, #272]	@ (80025fc <HAL_RCC_OscConfig+0x26c>)
 80024ea:	b182      	cbz	r2, 800250e <HAL_RCC_OscConfig+0x17e>
 80024ec:	2201      	movs	r2, #1
 80024ee:	f8c3 2e80 	str.w	r2, [r3, #3712]	@ 0xe80
 80024f2:	f7ff fb1d 	bl	8001b30 <HAL_GetTick>
 80024f6:	4e40      	ldr	r6, [pc, #256]	@ (80025f8 <HAL_RCC_OscConfig+0x268>)
 80024f8:	4605      	mov	r5, r0
 80024fa:	6f73      	ldr	r3, [r6, #116]	@ 0x74
 80024fc:	079b      	lsls	r3, r3, #30
 80024fe:	f53f af55 	bmi.w	80023ac <HAL_RCC_OscConfig+0x1c>
 8002502:	f7ff fb15 	bl	8001b30 <HAL_GetTick>
 8002506:	1b40      	subs	r0, r0, r5
 8002508:	2802      	cmp	r0, #2
 800250a:	d9f6      	bls.n	80024fa <HAL_RCC_OscConfig+0x16a>
 800250c:	e784      	b.n	8002418 <HAL_RCC_OscConfig+0x88>
 800250e:	f8c3 2e80 	str.w	r2, [r3, #3712]	@ 0xe80
 8002512:	f7ff fb0d 	bl	8001b30 <HAL_GetTick>
 8002516:	4e38      	ldr	r6, [pc, #224]	@ (80025f8 <HAL_RCC_OscConfig+0x268>)
 8002518:	4605      	mov	r5, r0
 800251a:	6f73      	ldr	r3, [r6, #116]	@ 0x74
 800251c:	079f      	lsls	r7, r3, #30
 800251e:	f57f af45 	bpl.w	80023ac <HAL_RCC_OscConfig+0x1c>
 8002522:	f7ff fb05 	bl	8001b30 <HAL_GetTick>
 8002526:	1b40      	subs	r0, r0, r5
 8002528:	2802      	cmp	r0, #2
 800252a:	d9f6      	bls.n	800251a <HAL_RCC_OscConfig+0x18a>
 800252c:	e774      	b.n	8002418 <HAL_RCC_OscConfig+0x88>
 800252e:	4b32      	ldr	r3, [pc, #200]	@ (80025f8 <HAL_RCC_OscConfig+0x268>)
 8002530:	6c1a      	ldr	r2, [r3, #64]	@ 0x40
 8002532:	f012 5280 	ands.w	r2, r2, #268435456	@ 0x10000000
 8002536:	d128      	bne.n	800258a <HAL_RCC_OscConfig+0x1fa>
 8002538:	9201      	str	r2, [sp, #4]
 800253a:	6c1a      	ldr	r2, [r3, #64]	@ 0x40
 800253c:	f042 5280 	orr.w	r2, r2, #268435456	@ 0x10000000
 8002540:	641a      	str	r2, [r3, #64]	@ 0x40
 8002542:	6c1b      	ldr	r3, [r3, #64]	@ 0x40
 8002544:	f003 5380 	and.w	r3, r3, #268435456	@ 0x10000000
 8002548:	9301      	str	r3, [sp, #4]
 800254a:	9b01      	ldr	r3, [sp, #4]
 800254c:	2701      	movs	r7, #1
 800254e:	4d2c      	ldr	r5, [pc, #176]	@ (8002600 <HAL_RCC_OscConfig+0x270>)
 8002550:	682b      	ldr	r3, [r5, #0]
 8002552:	05d8      	lsls	r0, r3, #23
 8002554:	d51b      	bpl.n	800258e <HAL_RCC_OscConfig+0x1fe>
 8002556:	68a3      	ldr	r3, [r4, #8]
 8002558:	4d27      	ldr	r5, [pc, #156]	@ (80025f8 <HAL_RCC_OscConfig+0x268>)
 800255a:	2b01      	cmp	r3, #1
 800255c:	d127      	bne.n	80025ae <HAL_RCC_OscConfig+0x21e>
 800255e:	6f2b      	ldr	r3, [r5, #112]	@ 0x70
 8002560:	f043 0301 	orr.w	r3, r3, #1
 8002564:	672b      	str	r3, [r5, #112]	@ 0x70
 8002566:	f7ff fae3 	bl	8001b30 <HAL_GetTick>
 800256a:	4e23      	ldr	r6, [pc, #140]	@ (80025f8 <HAL_RCC_OscConfig+0x268>)
 800256c:	4605      	mov	r5, r0
 800256e:	f241 3888 	movw	r8, #5000	@ 0x1388
 8002572:	6f33      	ldr	r3, [r6, #112]	@ 0x70
 8002574:	079a      	lsls	r2, r3, #30
 8002576:	d539      	bpl.n	80025ec <HAL_RCC_OscConfig+0x25c>
 8002578:	2f00      	cmp	r7, #0
 800257a:	f43f af1b 	beq.w	80023b4 <HAL_RCC_OscConfig+0x24>
 800257e:	4a1e      	ldr	r2, [pc, #120]	@ (80025f8 <HAL_RCC_OscConfig+0x268>)
 8002580:	6c13      	ldr	r3, [r2, #64]	@ 0x40
 8002582:	f023 5380 	bic.w	r3, r3, #268435456	@ 0x10000000
 8002586:	6413      	str	r3, [r2, #64]	@ 0x40
 8002588:	e714      	b.n	80023b4 <HAL_RCC_OscConfig+0x24>
 800258a:	2700      	movs	r7, #0
 800258c:	e7df      	b.n	800254e <HAL_RCC_OscConfig+0x1be>
 800258e:	682b      	ldr	r3, [r5, #0]
 8002590:	f443 7380 	orr.w	r3, r3, #256	@ 0x100
 8002594:	602b      	str	r3, [r5, #0]
 8002596:	f7ff facb 	bl	8001b30 <HAL_GetTick>
 800259a:	4606      	mov	r6, r0
 800259c:	682b      	ldr	r3, [r5, #0]
 800259e:	05d9      	lsls	r1, r3, #23
 80025a0:	d4d9      	bmi.n	8002556 <HAL_RCC_OscConfig+0x1c6>
 80025a2:	f7ff fac5 	bl	8001b30 <HAL_GetTick>
 80025a6:	1b80      	subs	r0, r0, r6
 80025a8:	2802      	cmp	r0, #2
 80025aa:	d9f7      	bls.n	800259c <HAL_RCC_OscConfig+0x20c>
 80025ac:	e734      	b.n	8002418 <HAL_RCC_OscConfig+0x88>
 80025ae:	2b05      	cmp	r3, #5
 80025b0:	d104      	bne.n	80025bc <HAL_RCC_OscConfig+0x22c>
 80025b2:	6f2b      	ldr	r3, [r5, #112]	@ 0x70
 80025b4:	f043 0304 	orr.w	r3, r3, #4
 80025b8:	672b      	str	r3, [r5, #112]	@ 0x70
 80025ba:	e7d0      	b.n	800255e <HAL_RCC_OscConfig+0x1ce>
 80025bc:	6f2a      	ldr	r2, [r5, #112]	@ 0x70
 80025be:	f022 0201 	bic.w	r2, r2, #1
 80025c2:	672a      	str	r2, [r5, #112]	@ 0x70
 80025c4:	6f2a      	ldr	r2, [r5, #112]	@ 0x70
 80025c6:	f022 0204 	bic.w	r2, r2, #4
 80025ca:	672a      	str	r2, [r5, #112]	@ 0x70
 80025cc:	2b00      	cmp	r3, #0
 80025ce:	d1ca      	bne.n	8002566 <HAL_RCC_OscConfig+0x1d6>
 80025d0:	f7ff faae 	bl	8001b30 <HAL_GetTick>
 80025d4:	f241 3888 	movw	r8, #5000	@ 0x1388
 80025d8:	4606      	mov	r6, r0
 80025da:	6f2b      	ldr	r3, [r5, #112]	@ 0x70
 80025dc:	079b      	lsls	r3, r3, #30
 80025de:	d5cb      	bpl.n	8002578 <HAL_RCC_OscConfig+0x1e8>
 80025e0:	f7ff faa6 	bl	8001b30 <HAL_GetTick>
 80025e4:	1b80      	subs	r0, r0, r6
 80025e6:	4540      	cmp	r0, r8
 80025e8:	d9f7      	bls.n	80025da <HAL_RCC_OscConfig+0x24a>
 80025ea:	e715      	b.n	8002418 <HAL_RCC_OscConfig+0x88>
 80025ec:	f7ff faa0 	bl	8001b30 <HAL_GetTick>
 80025f0:	1b40      	subs	r0, r0, r5
 80025f2:	4540      	cmp	r0, r8
 80025f4:	d9bd      	bls.n	8002572 <HAL_RCC_OscConfig+0x1e2>
 80025f6:	e70f      	b.n	8002418 <HAL_RCC_OscConfig+0x88>
 80025f8:	40023800 	.word	0x40023800
 80025fc:	42470000 	.word	0x42470000
 8002600:	40007000 	.word	0x40007000
 8002604:	4d37      	ldr	r5, [pc, #220]	@ (80026e4 <HAL_RCC_OscConfig+0x354>)
 8002606:	68aa      	ldr	r2, [r5, #8]
 8002608:	f002 020c 	and.w	r2, r2, #12
 800260c:	2a08      	cmp	r2, #8
 800260e:	d03e      	beq.n	800268e <HAL_RCC_OscConfig+0x2fe>
 8002610:	2b02      	cmp	r3, #2
 8002612:	4b35      	ldr	r3, [pc, #212]	@ (80026e8 <HAL_RCC_OscConfig+0x358>)
 8002614:	f04f 0200 	mov.w	r2, #0
 8002618:	661a      	str	r2, [r3, #96]	@ 0x60
 800261a:	d12b      	bne.n	8002674 <HAL_RCC_OscConfig+0x2e4>
 800261c:	f7ff fa88 	bl	8001b30 <HAL_GetTick>
 8002620:	4606      	mov	r6, r0
 8002622:	682b      	ldr	r3, [r5, #0]
 8002624:	0199      	lsls	r1, r3, #6
 8002626:	d41f      	bmi.n	8002668 <HAL_RCC_OscConfig+0x2d8>
 8002628:	e9d4 3207 	ldrd	r3, r2, [r4, #28]
 800262c:	4313      	orrs	r3, r2
 800262e:	6a62      	ldr	r2, [r4, #36]	@ 0x24
 8002630:	ea43 1382 	orr.w	r3, r3, r2, lsl #6
 8002634:	6ae2      	ldr	r2, [r4, #44]	@ 0x2c
 8002636:	ea43 6302 	orr.w	r3, r3, r2, lsl #24
 800263a:	6aa2      	ldr	r2, [r4, #40]	@ 0x28
 800263c:	0852      	lsrs	r2, r2, #1
 800263e:	3a01      	subs	r2, #1
 8002640:	ea43 4302 	orr.w	r3, r3, r2, lsl #16
 8002644:	606b      	str	r3, [r5, #4]
 8002646:	4b28      	ldr	r3, [pc, #160]	@ (80026e8 <HAL_RCC_OscConfig+0x358>)
 8002648:	4d26      	ldr	r5, [pc, #152]	@ (80026e4 <HAL_RCC_OscConfig+0x354>)
 800264a:	2201      	movs	r2, #1
 800264c:	661a      	str	r2, [r3, #96]	@ 0x60
 800264e:	f7ff fa6f 	bl	8001b30 <HAL_GetTick>
 8002652:	4604      	mov	r4, r0
 8002654:	682b      	ldr	r3, [r5, #0]
 8002656:	019a      	lsls	r2, r3, #6
 8002658:	f53f aeb0 	bmi.w	80023bc <HAL_RCC_OscConfig+0x2c>
 800265c:	f7ff fa68 	bl	8001b30 <HAL_GetTick>
 8002660:	1b00      	subs	r0, r0, r4
 8002662:	2802      	cmp	r0, #2
 8002664:	d9f6      	bls.n	8002654 <HAL_RCC_OscConfig+0x2c4>
 8002666:	e6d7      	b.n	8002418 <HAL_RCC_OscConfig+0x88>
 8002668:	f7ff fa62 	bl	8001b30 <HAL_GetTick>
 800266c:	1b80      	subs	r0, r0, r6
 800266e:	2802      	cmp	r0, #2
 8002670:	d9d7      	bls.n	8002622 <HAL_RCC_OscConfig+0x292>
 8002672:	e6d1      	b.n	8002418 <HAL_RCC_OscConfig+0x88>
 8002674:	f7ff fa5c 	bl	8001b30 <HAL_GetTick>
 8002678:	4604      	mov	r4, r0
 800267a:	682b      	ldr	r3, [r5, #0]
 800267c:	019b      	lsls	r3, r3, #6
 800267e:	f57f ae9d 	bpl.w	80023bc <HAL_RCC_OscConfig+0x2c>
 8002682:	f7ff fa55 	bl	8001b30 <HAL_GetTick>
 8002686:	1b00      	subs	r0, r0, r4
 8002688:	2802      	cmp	r0, #2
 800268a:	d9f6      	bls.n	800267a <HAL_RCC_OscConfig+0x2ea>
 800268c:	e6c4      	b.n	8002418 <HAL_RCC_OscConfig+0x88>
 800268e:	2b01      	cmp	r3, #1
 8002690:	f43f aeab 	beq.w	80023ea <HAL_RCC_OscConfig+0x5a>
 8002694:	686b      	ldr	r3, [r5, #4]
 8002696:	69e2      	ldr	r2, [r4, #28]
 8002698:	f403 0180 	and.w	r1, r3, #4194304	@ 0x400000
 800269c:	4291      	cmp	r1, r2
 800269e:	f47f aea4 	bne.w	80023ea <HAL_RCC_OscConfig+0x5a>
 80026a2:	6a21      	ldr	r1, [r4, #32]
 80026a4:	f003 023f 	and.w	r2, r3, #63	@ 0x3f
 80026a8:	428a      	cmp	r2, r1
 80026aa:	f47f ae9e 	bne.w	80023ea <HAL_RCC_OscConfig+0x5a>
 80026ae:	6a61      	ldr	r1, [r4, #36]	@ 0x24
 80026b0:	f647 72c0 	movw	r2, #32704	@ 0x7fc0
 80026b4:	401a      	ands	r2, r3
 80026b6:	ebb2 1f81 	cmp.w	r2, r1, lsl #6
 80026ba:	f47f ae96 	bne.w	80023ea <HAL_RCC_OscConfig+0x5a>
 80026be:	6aa2      	ldr	r2, [r4, #40]	@ 0x28
 80026c0:	0852      	lsrs	r2, r2, #1
 80026c2:	f403 3140 	and.w	r1, r3, #196608	@ 0x30000
 80026c6:	3a01      	subs	r2, #1
 80026c8:	ebb1 4f02 	cmp.w	r1, r2, lsl #16
 80026cc:	f47f ae8d 	bne.w	80023ea <HAL_RCC_OscConfig+0x5a>
 80026d0:	6ae2      	ldr	r2, [r4, #44]	@ 0x2c
 80026d2:	f003 6370 	and.w	r3, r3, #251658240	@ 0xf000000
 80026d6:	ebb3 6f02 	cmp.w	r3, r2, lsl #24
 80026da:	bf14      	ite	ne
 80026dc:	2001      	movne	r0, #1
 80026de:	2000      	moveq	r0, #0
 80026e0:	e69b      	b.n	800241a <HAL_RCC_OscConfig+0x8a>
 80026e2:	bf00      	nop
 80026e4:	40023800 	.word	0x40023800
 80026e8:	42470000 	.word	0x42470000

080026ec <HAL_RCC_MCOConfig>:
 80026ec:	b570      	push	{r4, r5, r6, lr}
 80026ee:	4c22      	ldr	r4, [pc, #136]	@ (8002778 <HAL_RCC_MCOConfig+0x8c>)
 80026f0:	b088      	sub	sp, #32
 80026f2:	460e      	mov	r6, r1
 80026f4:	4615      	mov	r5, r2
 80026f6:	b9f8      	cbnz	r0, 8002738 <HAL_RCC_MCOConfig+0x4c>
 80026f8:	9001      	str	r0, [sp, #4]
 80026fa:	6b23      	ldr	r3, [r4, #48]	@ 0x30
 80026fc:	f043 0301 	orr.w	r3, r3, #1
 8002700:	6323      	str	r3, [r4, #48]	@ 0x30
 8002702:	6b23      	ldr	r3, [r4, #48]	@ 0x30
 8002704:	9007      	str	r0, [sp, #28]
 8002706:	f003 0301 	and.w	r3, r3, #1
 800270a:	9301      	str	r3, [sp, #4]
 800270c:	9b01      	ldr	r3, [sp, #4]
 800270e:	f44f 7c80 	mov.w	ip, #256	@ 0x100
 8002712:	2302      	movs	r3, #2
 8002714:	e9cd c303 	strd	ip, r3, [sp, #12]
 8002718:	2303      	movs	r3, #3
 800271a:	e9cd 0305 	strd	r0, r3, [sp, #20]
 800271e:	a903      	add	r1, sp, #12
 8002720:	4816      	ldr	r0, [pc, #88]	@ (800277c <HAL_RCC_MCOConfig+0x90>)
 8002722:	f7ff fad5 	bl	8001cd0 <HAL_GPIO_Init>
 8002726:	68a3      	ldr	r3, [r4, #8]
 8002728:	f023 63ec 	bic.w	r3, r3, #123731968	@ 0x7600000
 800272c:	ea43 0106 	orr.w	r1, r3, r6
 8002730:	4329      	orrs	r1, r5
 8002732:	60a1      	str	r1, [r4, #8]
 8002734:	b008      	add	sp, #32
 8002736:	bd70      	pop	{r4, r5, r6, pc}
 8002738:	2300      	movs	r3, #0
 800273a:	9302      	str	r3, [sp, #8]
 800273c:	6b22      	ldr	r2, [r4, #48]	@ 0x30
 800273e:	4810      	ldr	r0, [pc, #64]	@ (8002780 <HAL_RCC_MCOConfig+0x94>)
 8002740:	f042 0204 	orr.w	r2, r2, #4
 8002744:	6322      	str	r2, [r4, #48]	@ 0x30
 8002746:	6b22      	ldr	r2, [r4, #48]	@ 0x30
 8002748:	9307      	str	r3, [sp, #28]
 800274a:	f002 0204 	and.w	r2, r2, #4
 800274e:	9202      	str	r2, [sp, #8]
 8002750:	9a02      	ldr	r2, [sp, #8]
 8002752:	f44f 7100 	mov.w	r1, #512	@ 0x200
 8002756:	2202      	movs	r2, #2
 8002758:	e9cd 1203 	strd	r1, r2, [sp, #12]
 800275c:	2203      	movs	r2, #3
 800275e:	a903      	add	r1, sp, #12
 8002760:	e9cd 3205 	strd	r3, r2, [sp, #20]
 8002764:	f7ff fab4 	bl	8001cd0 <HAL_GPIO_Init>
 8002768:	68a3      	ldr	r3, [r4, #8]
 800276a:	f023 4378 	bic.w	r3, r3, #4160749568	@ 0xf8000000
 800276e:	ea43 0106 	orr.w	r1, r3, r6
 8002772:	ea41 01c5 	orr.w	r1, r1, r5, lsl #3
 8002776:	e7dc      	b.n	8002732 <HAL_RCC_MCOConfig+0x46>
 8002778:	40023800 	.word	0x40023800
 800277c:	40020000 	.word	0x40020000
 8002780:	40020800 	.word	0x40020800

08002784 <HAL_RCC_GetSysClockFreq>:
 8002784:	4913      	ldr	r1, [pc, #76]	@ (80027d4 <HAL_RCC_GetSysClockFreq+0x50>)
 8002786:	b508      	push	{r3, lr}
 8002788:	688b      	ldr	r3, [r1, #8]
 800278a:	f003 030c 	and.w	r3, r3, #12
 800278e:	2b04      	cmp	r3, #4
 8002790:	d01c      	beq.n	80027cc <HAL_RCC_GetSysClockFreq+0x48>
 8002792:	2b08      	cmp	r3, #8
 8002794:	d11c      	bne.n	80027d0 <HAL_RCC_GetSysClockFreq+0x4c>
 8002796:	684a      	ldr	r2, [r1, #4]
 8002798:	684b      	ldr	r3, [r1, #4]
 800279a:	6849      	ldr	r1, [r1, #4]
 800279c:	f413 0380 	ands.w	r3, r3, #4194304	@ 0x400000
 80027a0:	bf14      	ite	ne
 80027a2:	480d      	ldrne	r0, [pc, #52]	@ (80027d8 <HAL_RCC_GetSysClockFreq+0x54>)
 80027a4:	480d      	ldreq	r0, [pc, #52]	@ (80027dc <HAL_RCC_GetSysClockFreq+0x58>)
 80027a6:	f3c1 1188 	ubfx	r1, r1, #6, #9
 80027aa:	bf18      	it	ne
 80027ac:	2300      	movne	r3, #0
 80027ae:	f002 023f 	and.w	r2, r2, #63	@ 0x3f
 80027b2:	fba1 0100 	umull	r0, r1, r1, r0
 80027b6:	f7fd fd6b 	bl	8000290 <__aeabi_uldivmod>
 80027ba:	4b06      	ldr	r3, [pc, #24]	@ (80027d4 <HAL_RCC_GetSysClockFreq+0x50>)
 80027bc:	685b      	ldr	r3, [r3, #4]
 80027be:	f3c3 4301 	ubfx	r3, r3, #16, #2
 80027c2:	3301      	adds	r3, #1
 80027c4:	005b      	lsls	r3, r3, #1
 80027c6:	fbb0 f0f3 	udiv	r0, r0, r3
 80027ca:	bd08      	pop	{r3, pc}
 80027cc:	4802      	ldr	r0, [pc, #8]	@ (80027d8 <HAL_RCC_GetSysClockFreq+0x54>)
 80027ce:	e7fc      	b.n	80027ca <HAL_RCC_GetSysClockFreq+0x46>
 80027d0:	4802      	ldr	r0, [pc, #8]	@ (80027dc <HAL_RCC_GetSysClockFreq+0x58>)
 80027d2:	e7fa      	b.n	80027ca <HAL_RCC_GetSysClockFreq+0x46>
 80027d4:	40023800 	.word	0x40023800
 80027d8:	017d7840 	.word	0x017d7840
 80027dc:	00f42400 	.word	0x00f42400

080027e0 <HAL_RCC_ClockConfig>:
 80027e0:	e92d 41f0 	stmdb	sp!, {r4, r5, r6, r7, r8, lr}
 80027e4:	460d      	mov	r5, r1
 80027e6:	4604      	mov	r4, r0
 80027e8:	b910      	cbnz	r0, 80027f0 <HAL_RCC_ClockConfig+0x10>
 80027ea:	2001      	movs	r0, #1
 80027ec:	e8bd 81f0 	ldmia.w	sp!, {r4, r5, r6, r7, r8, pc}
 80027f0:	4b43      	ldr	r3, [pc, #268]	@ (8002900 <HAL_RCC_ClockConfig+0x120>)
 80027f2:	681a      	ldr	r2, [r3, #0]
 80027f4:	f002 0207 	and.w	r2, r2, #7
 80027f8:	428a      	cmp	r2, r1
 80027fa:	d328      	bcc.n	800284e <HAL_RCC_ClockConfig+0x6e>
 80027fc:	6821      	ldr	r1, [r4, #0]
 80027fe:	078f      	lsls	r7, r1, #30
 8002800:	d42d      	bmi.n	800285e <HAL_RCC_ClockConfig+0x7e>
 8002802:	07c8      	lsls	r0, r1, #31
 8002804:	d440      	bmi.n	8002888 <HAL_RCC_ClockConfig+0xa8>
 8002806:	4b3e      	ldr	r3, [pc, #248]	@ (8002900 <HAL_RCC_ClockConfig+0x120>)
 8002808:	681a      	ldr	r2, [r3, #0]
 800280a:	f002 0207 	and.w	r2, r2, #7
 800280e:	42aa      	cmp	r2, r5
 8002810:	d865      	bhi.n	80028de <HAL_RCC_ClockConfig+0xfe>
 8002812:	6822      	ldr	r2, [r4, #0]
 8002814:	0751      	lsls	r1, r2, #29
 8002816:	d46b      	bmi.n	80028f0 <HAL_RCC_ClockConfig+0x110>
 8002818:	0713      	lsls	r3, r2, #28
 800281a:	d507      	bpl.n	800282c <HAL_RCC_ClockConfig+0x4c>
 800281c:	4a39      	ldr	r2, [pc, #228]	@ (8002904 <HAL_RCC_ClockConfig+0x124>)
 800281e:	6921      	ldr	r1, [r4, #16]
 8002820:	6893      	ldr	r3, [r2, #8]
 8002822:	f423 4360 	bic.w	r3, r3, #57344	@ 0xe000
 8002826:	ea43 03c1 	orr.w	r3, r3, r1, lsl #3
 800282a:	6093      	str	r3, [r2, #8]
 800282c:	f7ff ffaa 	bl	8002784 <HAL_RCC_GetSysClockFreq>
 8002830:	4b34      	ldr	r3, [pc, #208]	@ (8002904 <HAL_RCC_ClockConfig+0x124>)
 8002832:	4a35      	ldr	r2, [pc, #212]	@ (8002908 <HAL_RCC_ClockConfig+0x128>)
 8002834:	689b      	ldr	r3, [r3, #8]
 8002836:	f3c3 1303 	ubfx	r3, r3, #4, #4
 800283a:	5cd3      	ldrb	r3, [r2, r3]
 800283c:	40d8      	lsrs	r0, r3
 800283e:	4b33      	ldr	r3, [pc, #204]	@ (800290c <HAL_RCC_ClockConfig+0x12c>)
 8002840:	6018      	str	r0, [r3, #0]
 8002842:	4b33      	ldr	r3, [pc, #204]	@ (8002910 <HAL_RCC_ClockConfig+0x130>)
 8002844:	6818      	ldr	r0, [r3, #0]
 8002846:	f7ff f929 	bl	8001a9c <HAL_InitTick>
 800284a:	2000      	movs	r0, #0
 800284c:	e7ce      	b.n	80027ec <HAL_RCC_ClockConfig+0xc>
 800284e:	b2ca      	uxtb	r2, r1
 8002850:	701a      	strb	r2, [r3, #0]
 8002852:	681b      	ldr	r3, [r3, #0]
 8002854:	f003 0307 	and.w	r3, r3, #7
 8002858:	428b      	cmp	r3, r1
 800285a:	d1c6      	bne.n	80027ea <HAL_RCC_ClockConfig+0xa>
 800285c:	e7ce      	b.n	80027fc <HAL_RCC_ClockConfig+0x1c>
 800285e:	4b29      	ldr	r3, [pc, #164]	@ (8002904 <HAL_RCC_ClockConfig+0x124>)
 8002860:	f011 0f04 	tst.w	r1, #4
 8002864:	bf1e      	ittt	ne
 8002866:	689a      	ldrne	r2, [r3, #8]
 8002868:	f442 52e0 	orrne.w	r2, r2, #7168	@ 0x1c00
 800286c:	609a      	strne	r2, [r3, #8]
 800286e:	070e      	lsls	r6, r1, #28
 8002870:	bf42      	ittt	mi
 8002872:	689a      	ldrmi	r2, [r3, #8]
 8002874:	f442 4260 	orrmi.w	r2, r2, #57344	@ 0xe000
 8002878:	609a      	strmi	r2, [r3, #8]
 800287a:	689a      	ldr	r2, [r3, #8]
 800287c:	68a0      	ldr	r0, [r4, #8]
 800287e:	f022 02f0 	bic.w	r2, r2, #240	@ 0xf0
 8002882:	4302      	orrs	r2, r0
 8002884:	609a      	str	r2, [r3, #8]
 8002886:	e7bc      	b.n	8002802 <HAL_RCC_ClockConfig+0x22>
 8002888:	6862      	ldr	r2, [r4, #4]
 800288a:	4b1e      	ldr	r3, [pc, #120]	@ (8002904 <HAL_RCC_ClockConfig+0x124>)
 800288c:	2a01      	cmp	r2, #1
 800288e:	d11c      	bne.n	80028ca <HAL_RCC_ClockConfig+0xea>
 8002890:	681b      	ldr	r3, [r3, #0]
 8002892:	f413 3f00 	tst.w	r3, #131072	@ 0x20000
 8002896:	d0a8      	beq.n	80027ea <HAL_RCC_ClockConfig+0xa>
 8002898:	4e1a      	ldr	r6, [pc, #104]	@ (8002904 <HAL_RCC_ClockConfig+0x124>)
 800289a:	68b3      	ldr	r3, [r6, #8]
 800289c:	f023 0303 	bic.w	r3, r3, #3
 80028a0:	4313      	orrs	r3, r2
 80028a2:	60b3      	str	r3, [r6, #8]
 80028a4:	f7ff f944 	bl	8001b30 <HAL_GetTick>
 80028a8:	f241 3888 	movw	r8, #5000	@ 0x1388
 80028ac:	4607      	mov	r7, r0
 80028ae:	68b3      	ldr	r3, [r6, #8]
 80028b0:	6862      	ldr	r2, [r4, #4]
 80028b2:	f003 030c 	and.w	r3, r3, #12
 80028b6:	ebb3 0f82 	cmp.w	r3, r2, lsl #2
 80028ba:	d0a4      	beq.n	8002806 <HAL_RCC_ClockConfig+0x26>
 80028bc:	f7ff f938 	bl	8001b30 <HAL_GetTick>
 80028c0:	1bc0      	subs	r0, r0, r7
 80028c2:	4540      	cmp	r0, r8
 80028c4:	d9f3      	bls.n	80028ae <HAL_RCC_ClockConfig+0xce>
 80028c6:	2003      	movs	r0, #3
 80028c8:	e790      	b.n	80027ec <HAL_RCC_ClockConfig+0xc>
 80028ca:	1e91      	subs	r1, r2, #2
 80028cc:	2901      	cmp	r1, #1
 80028ce:	681b      	ldr	r3, [r3, #0]
 80028d0:	d802      	bhi.n	80028d8 <HAL_RCC_ClockConfig+0xf8>
 80028d2:	f013 7f00 	tst.w	r3, #33554432	@ 0x2000000
 80028d6:	e7de      	b.n	8002896 <HAL_RCC_ClockConfig+0xb6>
 80028d8:	f013 0f02 	tst.w	r3, #2
 80028dc:	e7db      	b.n	8002896 <HAL_RCC_ClockConfig+0xb6>
 80028de:	b2ea      	uxtb	r2, r5
 80028e0:	701a      	strb	r2, [r3, #0]
 80028e2:	681b      	ldr	r3, [r3, #0]
 80028e4:	f003 0307 	and.w	r3, r3, #7
 80028e8:	42ab      	cmp	r3, r5
 80028ea:	f47f af7e 	bne.w	80027ea <HAL_RCC_ClockConfig+0xa>
 80028ee:	e790      	b.n	8002812 <HAL_RCC_ClockConfig+0x32>
 80028f0:	4904      	ldr	r1, [pc, #16]	@ (8002904 <HAL_RCC_ClockConfig+0x124>)
 80028f2:	68e0      	ldr	r0, [r4, #12]
 80028f4:	688b      	ldr	r3, [r1, #8]
 80028f6:	f423 53e0 	bic.w	r3, r3, #7168	@ 0x1c00
 80028fa:	4303      	orrs	r3, r0
 80028fc:	608b      	str	r3, [r1, #8]
 80028fe:	e78b      	b.n	8002818 <HAL_RCC_ClockConfig+0x38>
 8002900:	40023c00 	.word	0x40023c00
 8002904:	40023800 	.word	0x40023800
 8002908:	08005d0a 	.word	0x08005d0a
 800290c:	20000004 	.word	0x20000004
 8002910:	2000000c 	.word	0x2000000c

08002914 <HAL_RCC_GetPCLK1Freq>:
 8002914:	4b04      	ldr	r3, [pc, #16]	@ (8002928 <HAL_RCC_GetPCLK1Freq+0x14>)
 8002916:	4a05      	ldr	r2, [pc, #20]	@ (800292c <HAL_RCC_GetPCLK1Freq+0x18>)
 8002918:	689b      	ldr	r3, [r3, #8]
 800291a:	f3c3 2382 	ubfx	r3, r3, #10, #3
 800291e:	5cd3      	ldrb	r3, [r2, r3]
 8002920:	4a03      	ldr	r2, [pc, #12]	@ (8002930 <HAL_RCC_GetPCLK1Freq+0x1c>)
 8002922:	6810      	ldr	r0, [r2, #0]
 8002924:	40d8      	lsrs	r0, r3
 8002926:	4770      	bx	lr
 8002928:	40023800 	.word	0x40023800
 800292c:	08005d02 	.word	0x08005d02
 8002930:	20000004 	.word	0x20000004

08002934 <HAL_RCC_GetPCLK2Freq>:
 8002934:	4b04      	ldr	r3, [pc, #16]	@ (8002948 <HAL_RCC_GetPCLK2Freq+0x14>)
 8002936:	4a05      	ldr	r2, [pc, #20]	@ (800294c <HAL_RCC_GetPCLK2Freq+0x18>)
 8002938:	689b      	ldr	r3, [r3, #8]
 800293a:	f3c3 3342 	ubfx	r3, r3, #13, #3
 800293e:	5cd3      	ldrb	r3, [r2, r3]
 8002940:	4a03      	ldr	r2, [pc, #12]	@ (8002950 <HAL_RCC_GetPCLK2Freq+0x1c>)
 8002942:	6810      	ldr	r0, [r2, #0]
 8002944:	40d8      	lsrs	r0, r3
 8002946:	4770      	bx	lr
 8002948:	40023800 	.word	0x40023800
 800294c:	08005d02 	.word	0x08005d02
 8002950:	20000004 	.word	0x20000004

08002954 <HAL_RCCEx_PeriphCLKConfig>:
 8002954:	6803      	ldr	r3, [r0, #0]
 8002956:	f013 0f05 	tst.w	r3, #5
 800295a:	b5f7      	push	{r0, r1, r2, r4, r5, r6, r7, lr}
 800295c:	4604      	mov	r4, r0
 800295e:	d139      	bne.n	80029d4 <HAL_RCCEx_PeriphCLKConfig+0x80>
 8002960:	6823      	ldr	r3, [r4, #0]
 8002962:	079a      	lsls	r2, r3, #30
 8002964:	d531      	bpl.n	80029ca <HAL_RCCEx_PeriphCLKConfig+0x76>
 8002966:	2300      	movs	r3, #0
 8002968:	9301      	str	r3, [sp, #4]
 800296a:	4b47      	ldr	r3, [pc, #284]	@ (8002a88 <HAL_RCCEx_PeriphCLKConfig+0x134>)
 800296c:	4d47      	ldr	r5, [pc, #284]	@ (8002a8c <HAL_RCCEx_PeriphCLKConfig+0x138>)
 800296e:	6c1a      	ldr	r2, [r3, #64]	@ 0x40
 8002970:	f042 5280 	orr.w	r2, r2, #268435456	@ 0x10000000
 8002974:	641a      	str	r2, [r3, #64]	@ 0x40
 8002976:	6c1b      	ldr	r3, [r3, #64]	@ 0x40
 8002978:	f003 5380 	and.w	r3, r3, #268435456	@ 0x10000000
 800297c:	9301      	str	r3, [sp, #4]
 800297e:	9b01      	ldr	r3, [sp, #4]
 8002980:	682b      	ldr	r3, [r5, #0]
 8002982:	f443 7380 	orr.w	r3, r3, #256	@ 0x100
 8002986:	602b      	str	r3, [r5, #0]
 8002988:	f7ff f8d2 	bl	8001b30 <HAL_GetTick>
 800298c:	4606      	mov	r6, r0
 800298e:	682b      	ldr	r3, [r5, #0]
 8002990:	05d8      	lsls	r0, r3, #23
 8002992:	d54a      	bpl.n	8002a2a <HAL_RCCEx_PeriphCLKConfig+0xd6>
 8002994:	4d3c      	ldr	r5, [pc, #240]	@ (8002a88 <HAL_RCCEx_PeriphCLKConfig+0x134>)
 8002996:	6922      	ldr	r2, [r4, #16]
 8002998:	6f2b      	ldr	r3, [r5, #112]	@ 0x70
 800299a:	f413 7340 	ands.w	r3, r3, #768	@ 0x300
 800299e:	d14a      	bne.n	8002a36 <HAL_RCCEx_PeriphCLKConfig+0xe2>
 80029a0:	6923      	ldr	r3, [r4, #16]
 80029a2:	f403 7240 	and.w	r2, r3, #768	@ 0x300
 80029a6:	f5b2 7f40 	cmp.w	r2, #768	@ 0x300
 80029aa:	4a37      	ldr	r2, [pc, #220]	@ (8002a88 <HAL_RCCEx_PeriphCLKConfig+0x134>)
 80029ac:	d163      	bne.n	8002a76 <HAL_RCCEx_PeriphCLKConfig+0x122>
 80029ae:	6891      	ldr	r1, [r2, #8]
 80029b0:	f023 4070 	bic.w	r0, r3, #4026531840	@ 0xf0000000
 80029b4:	f421 11f8 	bic.w	r1, r1, #2031616	@ 0x1f0000
 80029b8:	f420 7040 	bic.w	r0, r0, #768	@ 0x300
 80029bc:	4301      	orrs	r1, r0
 80029be:	6091      	str	r1, [r2, #8]
 80029c0:	6f11      	ldr	r1, [r2, #112]	@ 0x70
 80029c2:	f3c3 030b 	ubfx	r3, r3, #0, #12
 80029c6:	430b      	orrs	r3, r1
 80029c8:	6713      	str	r3, [r2, #112]	@ 0x70
 80029ca:	6823      	ldr	r3, [r4, #0]
 80029cc:	071b      	lsls	r3, r3, #28
 80029ce:	d456      	bmi.n	8002a7e <HAL_RCCEx_PeriphCLKConfig+0x12a>
 80029d0:	2000      	movs	r0, #0
 80029d2:	e028      	b.n	8002a26 <HAL_RCCEx_PeriphCLKConfig+0xd2>
 80029d4:	4b2e      	ldr	r3, [pc, #184]	@ (8002a90 <HAL_RCCEx_PeriphCLKConfig+0x13c>)
 80029d6:	4e2c      	ldr	r6, [pc, #176]	@ (8002a88 <HAL_RCCEx_PeriphCLKConfig+0x134>)
 80029d8:	2200      	movs	r2, #0
 80029da:	669a      	str	r2, [r3, #104]	@ 0x68
 80029dc:	f7ff f8a8 	bl	8001b30 <HAL_GetTick>
 80029e0:	4605      	mov	r5, r0
 80029e2:	6833      	ldr	r3, [r6, #0]
 80029e4:	011b      	lsls	r3, r3, #4
 80029e6:	d418      	bmi.n	8002a1a <HAL_RCCEx_PeriphCLKConfig+0xc6>
 80029e8:	e9d4 2302 	ldrd	r2, r3, [r4, #8]
 80029ec:	071b      	lsls	r3, r3, #28
 80029ee:	ea43 1382 	orr.w	r3, r3, r2, lsl #6
 80029f2:	6862      	ldr	r2, [r4, #4]
 80029f4:	4313      	orrs	r3, r2
 80029f6:	f8c6 3084 	str.w	r3, [r6, #132]	@ 0x84
 80029fa:	4b25      	ldr	r3, [pc, #148]	@ (8002a90 <HAL_RCCEx_PeriphCLKConfig+0x13c>)
 80029fc:	4e22      	ldr	r6, [pc, #136]	@ (8002a88 <HAL_RCCEx_PeriphCLKConfig+0x134>)
 80029fe:	2201      	movs	r2, #1
 8002a00:	669a      	str	r2, [r3, #104]	@ 0x68
 8002a02:	f7ff f895 	bl	8001b30 <HAL_GetTick>
 8002a06:	4605      	mov	r5, r0
 8002a08:	6833      	ldr	r3, [r6, #0]
 8002a0a:	011f      	lsls	r7, r3, #4
 8002a0c:	d4a8      	bmi.n	8002960 <HAL_RCCEx_PeriphCLKConfig+0xc>
 8002a0e:	f7ff f88f 	bl	8001b30 <HAL_GetTick>
 8002a12:	1b40      	subs	r0, r0, r5
 8002a14:	2802      	cmp	r0, #2
 8002a16:	d9f7      	bls.n	8002a08 <HAL_RCCEx_PeriphCLKConfig+0xb4>
 8002a18:	e004      	b.n	8002a24 <HAL_RCCEx_PeriphCLKConfig+0xd0>
 8002a1a:	f7ff f889 	bl	8001b30 <HAL_GetTick>
 8002a1e:	1b40      	subs	r0, r0, r5
 8002a20:	2802      	cmp	r0, #2
 8002a22:	d9de      	bls.n	80029e2 <HAL_RCCEx_PeriphCLKConfig+0x8e>
 8002a24:	2003      	movs	r0, #3
 8002a26:	b003      	add	sp, #12
 8002a28:	bdf0      	pop	{r4, r5, r6, r7, pc}
 8002a2a:	f7ff f881 	bl	8001b30 <HAL_GetTick>
 8002a2e:	1b80      	subs	r0, r0, r6
 8002a30:	2802      	cmp	r0, #2
 8002a32:	d9ac      	bls.n	800298e <HAL_RCCEx_PeriphCLKConfig+0x3a>
 8002a34:	e7f6      	b.n	8002a24 <HAL_RCCEx_PeriphCLKConfig+0xd0>
 8002a36:	f402 7240 	and.w	r2, r2, #768	@ 0x300
 8002a3a:	4293      	cmp	r3, r2
 8002a3c:	d0b0      	beq.n	80029a0 <HAL_RCCEx_PeriphCLKConfig+0x4c>
 8002a3e:	6f2b      	ldr	r3, [r5, #112]	@ 0x70
 8002a40:	4a13      	ldr	r2, [pc, #76]	@ (8002a90 <HAL_RCCEx_PeriphCLKConfig+0x13c>)
 8002a42:	2101      	movs	r1, #1
 8002a44:	f8c2 1e40 	str.w	r1, [r2, #3648]	@ 0xe40
 8002a48:	f423 7340 	bic.w	r3, r3, #768	@ 0x300
 8002a4c:	2100      	movs	r1, #0
 8002a4e:	f8c2 1e40 	str.w	r1, [r2, #3648]	@ 0xe40
 8002a52:	672b      	str	r3, [r5, #112]	@ 0x70
 8002a54:	6f2b      	ldr	r3, [r5, #112]	@ 0x70
 8002a56:	07d9      	lsls	r1, r3, #31
 8002a58:	d5a2      	bpl.n	80029a0 <HAL_RCCEx_PeriphCLKConfig+0x4c>
 8002a5a:	f7ff f869 	bl	8001b30 <HAL_GetTick>
 8002a5e:	f241 3788 	movw	r7, #5000	@ 0x1388
 8002a62:	4606      	mov	r6, r0
 8002a64:	6f2b      	ldr	r3, [r5, #112]	@ 0x70
 8002a66:	079a      	lsls	r2, r3, #30
 8002a68:	d49a      	bmi.n	80029a0 <HAL_RCCEx_PeriphCLKConfig+0x4c>
 8002a6a:	f7ff f861 	bl	8001b30 <HAL_GetTick>
 8002a6e:	1b80      	subs	r0, r0, r6
 8002a70:	42b8      	cmp	r0, r7
 8002a72:	d9f7      	bls.n	8002a64 <HAL_RCCEx_PeriphCLKConfig+0x110>
 8002a74:	e7d6      	b.n	8002a24 <HAL_RCCEx_PeriphCLKConfig+0xd0>
 8002a76:	6891      	ldr	r1, [r2, #8]
 8002a78:	f421 11f8 	bic.w	r1, r1, #2031616	@ 0x1f0000
 8002a7c:	e79f      	b.n	80029be <HAL_RCCEx_PeriphCLKConfig+0x6a>
 8002a7e:	4b05      	ldr	r3, [pc, #20]	@ (8002a94 <HAL_RCCEx_PeriphCLKConfig+0x140>)
 8002a80:	7d22      	ldrb	r2, [r4, #20]
 8002a82:	f8c3 21e0 	str.w	r2, [r3, #480]	@ 0x1e0
 8002a86:	e7a3      	b.n	80029d0 <HAL_RCCEx_PeriphCLKConfig+0x7c>
 8002a88:	40023800 	.word	0x40023800
 8002a8c:	40007000 	.word	0x40007000
 8002a90:	42470000 	.word	0x42470000
 8002a94:	42471000 	.word	0x42471000

08002a98 <HAL_RTC_WaitForSynchro>:
 8002a98:	b538      	push	{r3, r4, r5, lr}
 8002a9a:	6803      	ldr	r3, [r0, #0]
 8002a9c:	4a09      	ldr	r2, [pc, #36]	@ (8002ac4 <HAL_RTC_WaitForSynchro+0x2c>)
 8002a9e:	60da      	str	r2, [r3, #12]
 8002aa0:	4604      	mov	r4, r0
 8002aa2:	f7ff f845 	bl	8001b30 <HAL_GetTick>
 8002aa6:	4605      	mov	r5, r0
 8002aa8:	6823      	ldr	r3, [r4, #0]
 8002aaa:	68db      	ldr	r3, [r3, #12]
 8002aac:	069b      	lsls	r3, r3, #26
 8002aae:	d501      	bpl.n	8002ab4 <HAL_RTC_WaitForSynchro+0x1c>
 8002ab0:	2000      	movs	r0, #0
 8002ab2:	bd38      	pop	{r3, r4, r5, pc}
 8002ab4:	f7ff f83c 	bl	8001b30 <HAL_GetTick>
 8002ab8:	1b40      	subs	r0, r0, r5
 8002aba:	f5b0 7f7a 	cmp.w	r0, #1000	@ 0x3e8
 8002abe:	d9f3      	bls.n	8002aa8 <HAL_RTC_WaitForSynchro+0x10>
 8002ac0:	2003      	movs	r0, #3
 8002ac2:	e7f6      	b.n	8002ab2 <HAL_RTC_WaitForSynchro+0x1a>
 8002ac4:	00013f5f 	.word	0x00013f5f

08002ac8 <RTC_EnterInitMode>:
 8002ac8:	6803      	ldr	r3, [r0, #0]
 8002aca:	b570      	push	{r4, r5, r6, lr}
 8002acc:	68dc      	ldr	r4, [r3, #12]
 8002ace:	f014 0440 	ands.w	r4, r4, #64	@ 0x40
 8002ad2:	4605      	mov	r5, r0
 8002ad4:	d117      	bne.n	8002b06 <RTC_EnterInitMode+0x3e>
 8002ad6:	68da      	ldr	r2, [r3, #12]
 8002ad8:	f042 0280 	orr.w	r2, r2, #128	@ 0x80
 8002adc:	60da      	str	r2, [r3, #12]
 8002ade:	f7ff f827 	bl	8001b30 <HAL_GetTick>
 8002ae2:	4606      	mov	r6, r0
 8002ae4:	682b      	ldr	r3, [r5, #0]
 8002ae6:	68db      	ldr	r3, [r3, #12]
 8002ae8:	065b      	lsls	r3, r3, #25
 8002aea:	d400      	bmi.n	8002aee <RTC_EnterInitMode+0x26>
 8002aec:	b10c      	cbz	r4, 8002af2 <RTC_EnterInitMode+0x2a>
 8002aee:	4620      	mov	r0, r4
 8002af0:	bd70      	pop	{r4, r5, r6, pc}
 8002af2:	f7ff f81d 	bl	8001b30 <HAL_GetTick>
 8002af6:	1b80      	subs	r0, r0, r6
 8002af8:	f5b0 7f7a 	cmp.w	r0, #1000	@ 0x3e8
 8002afc:	bf82      	ittt	hi
 8002afe:	2304      	movhi	r3, #4
 8002b00:	776b      	strbhi	r3, [r5, #29]
 8002b02:	2401      	movhi	r4, #1
 8002b04:	e7ee      	b.n	8002ae4 <RTC_EnterInitMode+0x1c>
 8002b06:	2400      	movs	r4, #0
 8002b08:	e7f1      	b.n	8002aee <RTC_EnterInitMode+0x26>

08002b0a <RTC_ExitInitMode>:
 8002b0a:	6803      	ldr	r3, [r0, #0]
 8002b0c:	68da      	ldr	r2, [r3, #12]
 8002b0e:	f022 0280 	bic.w	r2, r2, #128	@ 0x80
 8002b12:	b510      	push	{r4, lr}
 8002b14:	60da      	str	r2, [r3, #12]
 8002b16:	689b      	ldr	r3, [r3, #8]
 8002b18:	069b      	lsls	r3, r3, #26
 8002b1a:	4604      	mov	r4, r0
 8002b1c:	d501      	bpl.n	8002b22 <RTC_ExitInitMode+0x18>
 8002b1e:	2000      	movs	r0, #0
 8002b20:	bd10      	pop	{r4, pc}
 8002b22:	f7ff ffb9 	bl	8002a98 <HAL_RTC_WaitForSynchro>
 8002b26:	2800      	cmp	r0, #0
 8002b28:	d0f9      	beq.n	8002b1e <RTC_ExitInitMode+0x14>
 8002b2a:	2304      	movs	r3, #4
 8002b2c:	7763      	strb	r3, [r4, #29]
 8002b2e:	2001      	movs	r0, #1
 8002b30:	e7f6      	b.n	8002b20 <RTC_ExitInitMode+0x16>

08002b32 <HAL_RTC_Init>:
 8002b32:	b510      	push	{r4, lr}
 8002b34:	4604      	mov	r4, r0
 8002b36:	2800      	cmp	r0, #0
 8002b38:	d041      	beq.n	8002bbe <HAL_RTC_Init+0x8c>
 8002b3a:	7f43      	ldrb	r3, [r0, #29]
 8002b3c:	f003 02ff 	and.w	r2, r3, #255	@ 0xff
 8002b40:	b913      	cbnz	r3, 8002b48 <HAL_RTC_Init+0x16>
 8002b42:	7702      	strb	r2, [r0, #28]
 8002b44:	f7fe fe8a 	bl	800185c <HAL_RTC_MspInit>
 8002b48:	2302      	movs	r3, #2
 8002b4a:	7763      	strb	r3, [r4, #29]
 8002b4c:	6823      	ldr	r3, [r4, #0]
 8002b4e:	68da      	ldr	r2, [r3, #12]
 8002b50:	06d2      	lsls	r2, r2, #27
 8002b52:	d503      	bpl.n	8002b5c <HAL_RTC_Init+0x2a>
 8002b54:	2301      	movs	r3, #1
 8002b56:	7763      	strb	r3, [r4, #29]
 8002b58:	2000      	movs	r0, #0
 8002b5a:	bd10      	pop	{r4, pc}
 8002b5c:	22ca      	movs	r2, #202	@ 0xca
 8002b5e:	625a      	str	r2, [r3, #36]	@ 0x24
 8002b60:	2253      	movs	r2, #83	@ 0x53
 8002b62:	625a      	str	r2, [r3, #36]	@ 0x24
 8002b64:	4620      	mov	r0, r4
 8002b66:	f7ff ffaf 	bl	8002ac8 <RTC_EnterInitMode>
 8002b6a:	bb10      	cbnz	r0, 8002bb2 <HAL_RTC_Init+0x80>
 8002b6c:	6823      	ldr	r3, [r4, #0]
 8002b6e:	6920      	ldr	r0, [r4, #16]
 8002b70:	689a      	ldr	r2, [r3, #8]
 8002b72:	f422 02e0 	bic.w	r2, r2, #7340032	@ 0x700000
 8002b76:	f022 0240 	bic.w	r2, r2, #64	@ 0x40
 8002b7a:	609a      	str	r2, [r3, #8]
 8002b7c:	6862      	ldr	r2, [r4, #4]
 8002b7e:	6899      	ldr	r1, [r3, #8]
 8002b80:	4302      	orrs	r2, r0
 8002b82:	6960      	ldr	r0, [r4, #20]
 8002b84:	4302      	orrs	r2, r0
 8002b86:	430a      	orrs	r2, r1
 8002b88:	609a      	str	r2, [r3, #8]
 8002b8a:	68e2      	ldr	r2, [r4, #12]
 8002b8c:	611a      	str	r2, [r3, #16]
 8002b8e:	691a      	ldr	r2, [r3, #16]
 8002b90:	68a1      	ldr	r1, [r4, #8]
 8002b92:	ea42 4201 	orr.w	r2, r2, r1, lsl #16
 8002b96:	611a      	str	r2, [r3, #16]
 8002b98:	4620      	mov	r0, r4
 8002b9a:	f7ff ffb6 	bl	8002b0a <RTC_ExitInitMode>
 8002b9e:	b940      	cbnz	r0, 8002bb2 <HAL_RTC_Init+0x80>
 8002ba0:	6823      	ldr	r3, [r4, #0]
 8002ba2:	69a1      	ldr	r1, [r4, #24]
 8002ba4:	6c1a      	ldr	r2, [r3, #64]	@ 0x40
 8002ba6:	f422 2280 	bic.w	r2, r2, #262144	@ 0x40000
 8002baa:	641a      	str	r2, [r3, #64]	@ 0x40
 8002bac:	6c1a      	ldr	r2, [r3, #64]	@ 0x40
 8002bae:	430a      	orrs	r2, r1
 8002bb0:	641a      	str	r2, [r3, #64]	@ 0x40
 8002bb2:	6823      	ldr	r3, [r4, #0]
 8002bb4:	22ff      	movs	r2, #255	@ 0xff
 8002bb6:	625a      	str	r2, [r3, #36]	@ 0x24
 8002bb8:	2800      	cmp	r0, #0
 8002bba:	d0cb      	beq.n	8002b54 <HAL_RTC_Init+0x22>
 8002bbc:	e7cd      	b.n	8002b5a <HAL_RTC_Init+0x28>
 8002bbe:	2001      	movs	r0, #1
 8002bc0:	e7cb      	b.n	8002b5a <HAL_RTC_Init+0x28>

08002bc2 <RTC_ByteToBcd2>:
 8002bc2:	2300      	movs	r3, #0
 8002bc4:	2809      	cmp	r0, #9
 8002bc6:	d803      	bhi.n	8002bd0 <RTC_ByteToBcd2+0xe>
 8002bc8:	ea40 1003 	orr.w	r0, r0, r3, lsl #4
 8002bcc:	b2c0      	uxtb	r0, r0
 8002bce:	4770      	bx	lr
 8002bd0:	380a      	subs	r0, #10
 8002bd2:	3301      	adds	r3, #1
 8002bd4:	b2c0      	uxtb	r0, r0
 8002bd6:	e7f5      	b.n	8002bc4 <RTC_ByteToBcd2+0x2>

08002bd8 <HAL_RTC_SetTime>:
 8002bd8:	e92d 41f0 	stmdb	sp!, {r4, r5, r6, r7, r8, lr}
 8002bdc:	7f03      	ldrb	r3, [r0, #28]
 8002bde:	2b01      	cmp	r3, #1
 8002be0:	4606      	mov	r6, r0
 8002be2:	460f      	mov	r7, r1
 8002be4:	f04f 0002 	mov.w	r0, #2
 8002be8:	d041      	beq.n	8002c6e <HAL_RTC_SetTime+0x96>
 8002bea:	2301      	movs	r3, #1
 8002bec:	6831      	ldr	r1, [r6, #0]
 8002bee:	7733      	strb	r3, [r6, #28]
 8002bf0:	7770      	strb	r0, [r6, #29]
 8002bf2:	7838      	ldrb	r0, [r7, #0]
 8002bf4:	787d      	ldrb	r5, [r7, #1]
 8002bf6:	78bc      	ldrb	r4, [r7, #2]
 8002bf8:	688b      	ldr	r3, [r1, #8]
 8002bfa:	2a00      	cmp	r2, #0
 8002bfc:	d139      	bne.n	8002c72 <HAL_RTC_SetTime+0x9a>
 8002bfe:	f013 0340 	ands.w	r3, r3, #64	@ 0x40
 8002c02:	bf08      	it	eq
 8002c04:	70fb      	strbeq	r3, [r7, #3]
 8002c06:	f7ff ffdc 	bl	8002bc2 <RTC_ByteToBcd2>
 8002c0a:	4680      	mov	r8, r0
 8002c0c:	4628      	mov	r0, r5
 8002c0e:	f7ff ffd8 	bl	8002bc2 <RTC_ByteToBcd2>
 8002c12:	4602      	mov	r2, r0
 8002c14:	4620      	mov	r0, r4
 8002c16:	f7ff ffd4 	bl	8002bc2 <RTC_ByteToBcd2>
 8002c1a:	78fb      	ldrb	r3, [r7, #3]
 8002c1c:	ea40 5383 	orr.w	r3, r0, r3, lsl #22
 8002c20:	ea43 4308 	orr.w	r3, r3, r8, lsl #16
 8002c24:	ea43 2402 	orr.w	r4, r3, r2, lsl #8
 8002c28:	23ca      	movs	r3, #202	@ 0xca
 8002c2a:	624b      	str	r3, [r1, #36]	@ 0x24
 8002c2c:	2353      	movs	r3, #83	@ 0x53
 8002c2e:	624b      	str	r3, [r1, #36]	@ 0x24
 8002c30:	4630      	mov	r0, r6
 8002c32:	f7ff ff49 	bl	8002ac8 <RTC_EnterInitMode>
 8002c36:	b9a8      	cbnz	r0, 8002c64 <HAL_RTC_SetTime+0x8c>
 8002c38:	6832      	ldr	r2, [r6, #0]
 8002c3a:	f004 347f 	and.w	r4, r4, #2139062143	@ 0x7f7f7f7f
 8002c3e:	f024 44fe 	bic.w	r4, r4, #2130706432	@ 0x7f000000
 8002c42:	6014      	str	r4, [r2, #0]
 8002c44:	6893      	ldr	r3, [r2, #8]
 8002c46:	f423 2380 	bic.w	r3, r3, #262144	@ 0x40000
 8002c4a:	6093      	str	r3, [r2, #8]
 8002c4c:	e9d7 3003 	ldrd	r3, r0, [r7, #12]
 8002c50:	6891      	ldr	r1, [r2, #8]
 8002c52:	4303      	orrs	r3, r0
 8002c54:	430b      	orrs	r3, r1
 8002c56:	6093      	str	r3, [r2, #8]
 8002c58:	4630      	mov	r0, r6
 8002c5a:	f7ff ff56 	bl	8002b0a <RTC_ExitInitMode>
 8002c5e:	b908      	cbnz	r0, 8002c64 <HAL_RTC_SetTime+0x8c>
 8002c60:	2301      	movs	r3, #1
 8002c62:	7773      	strb	r3, [r6, #29]
 8002c64:	6833      	ldr	r3, [r6, #0]
 8002c66:	22ff      	movs	r2, #255	@ 0xff
 8002c68:	625a      	str	r2, [r3, #36]	@ 0x24
 8002c6a:	2300      	movs	r3, #0
 8002c6c:	7733      	strb	r3, [r6, #28]
 8002c6e:	e8bd 81f0 	ldmia.w	sp!, {r4, r5, r6, r7, r8, pc}
 8002c72:	f013 0340 	ands.w	r3, r3, #64	@ 0x40
 8002c76:	bf08      	it	eq
 8002c78:	70fb      	strbeq	r3, [r7, #3]
 8002c7a:	022d      	lsls	r5, r5, #8
 8002c7c:	78fa      	ldrb	r2, [r7, #3]
 8002c7e:	ea45 4500 	orr.w	r5, r5, r0, lsl #16
 8002c82:	ea45 0304 	orr.w	r3, r5, r4
 8002c86:	ea43 5482 	orr.w	r4, r3, r2, lsl #22
 8002c8a:	e7cd      	b.n	8002c28 <HAL_RTC_SetTime+0x50>

08002c8c <HAL_RTC_SetDate>:
 8002c8c:	b5f8      	push	{r3, r4, r5, r6, r7, lr}
 8002c8e:	7f03      	ldrb	r3, [r0, #28]
 8002c90:	2b01      	cmp	r3, #1
 8002c92:	4605      	mov	r5, r0
 8002c94:	f04f 0002 	mov.w	r0, #2
 8002c98:	d027      	beq.n	8002cea <HAL_RTC_SetDate+0x5e>
 8002c9a:	2301      	movs	r3, #1
 8002c9c:	772b      	strb	r3, [r5, #28]
 8002c9e:	7768      	strb	r0, [r5, #29]
 8002ca0:	780e      	ldrb	r6, [r1, #0]
 8002ca2:	78c8      	ldrb	r0, [r1, #3]
 8002ca4:	784c      	ldrb	r4, [r1, #1]
 8002ca6:	788f      	ldrb	r7, [r1, #2]
 8002ca8:	0376      	lsls	r6, r6, #13
 8002caa:	b1fa      	cbz	r2, 8002cec <HAL_RTC_SetDate+0x60>
 8002cac:	ea46 4300 	orr.w	r3, r6, r0, lsl #16
 8002cb0:	433b      	orrs	r3, r7
 8002cb2:	ea43 2404 	orr.w	r4, r3, r4, lsl #8
 8002cb6:	682b      	ldr	r3, [r5, #0]
 8002cb8:	22ca      	movs	r2, #202	@ 0xca
 8002cba:	625a      	str	r2, [r3, #36]	@ 0x24
 8002cbc:	2253      	movs	r2, #83	@ 0x53
 8002cbe:	625a      	str	r2, [r3, #36]	@ 0x24
 8002cc0:	4628      	mov	r0, r5
 8002cc2:	f7ff ff01 	bl	8002ac8 <RTC_EnterInitMode>
 8002cc6:	b958      	cbnz	r0, 8002ce0 <HAL_RTC_SetDate+0x54>
 8002cc8:	682a      	ldr	r2, [r5, #0]
 8002cca:	f024 447f 	bic.w	r4, r4, #4278190080	@ 0xff000000
 8002cce:	f024 04c0 	bic.w	r4, r4, #192	@ 0xc0
 8002cd2:	6054      	str	r4, [r2, #4]
 8002cd4:	4628      	mov	r0, r5
 8002cd6:	f7ff ff18 	bl	8002b0a <RTC_ExitInitMode>
 8002cda:	b908      	cbnz	r0, 8002ce0 <HAL_RTC_SetDate+0x54>
 8002cdc:	2301      	movs	r3, #1
 8002cde:	776b      	strb	r3, [r5, #29]
 8002ce0:	682b      	ldr	r3, [r5, #0]
 8002ce2:	22ff      	movs	r2, #255	@ 0xff
 8002ce4:	625a      	str	r2, [r3, #36]	@ 0x24
 8002ce6:	2300      	movs	r3, #0
 8002ce8:	772b      	strb	r3, [r5, #28]
 8002cea:	bdf8      	pop	{r3, r4, r5, r6, r7, pc}
 8002cec:	06e3      	lsls	r3, r4, #27
 8002cee:	bf42      	ittt	mi
 8002cf0:	f024 0410 	bicmi.w	r4, r4, #16
 8002cf4:	340a      	addmi	r4, #10
 8002cf6:	704c      	strbmi	r4, [r1, #1]
 8002cf8:	f7ff ff63 	bl	8002bc2 <RTC_ByteToBcd2>
 8002cfc:	4604      	mov	r4, r0
 8002cfe:	7848      	ldrb	r0, [r1, #1]
 8002d00:	f7ff ff5f 	bl	8002bc2 <RTC_ByteToBcd2>
 8002d04:	4602      	mov	r2, r0
 8002d06:	4638      	mov	r0, r7
 8002d08:	f7ff ff5b 	bl	8002bc2 <RTC_ByteToBcd2>
 8002d0c:	ea40 0306 	orr.w	r3, r0, r6
 8002d10:	ea43 4304 	orr.w	r3, r3, r4, lsl #16
 8002d14:	ea43 2402 	orr.w	r4, r3, r2, lsl #8
 8002d18:	e7cd      	b.n	8002cb6 <HAL_RTC_SetDate+0x2a>

08002d1a <RTC_Bcd2ToByte>:
 8002d1a:	0903      	lsrs	r3, r0, #4
 8002d1c:	eb03 0383 	add.w	r3, r3, r3, lsl #2
 8002d20:	f000 000f 	and.w	r0, r0, #15
 8002d24:	eb00 0043 	add.w	r0, r0, r3, lsl #1
 8002d28:	b2c0      	uxtb	r0, r0
 8002d2a:	4770      	bx	lr

08002d2c <HAL_RTC_GetTime>:
 8002d2c:	b538      	push	{r3, r4, r5, lr}
 8002d2e:	6803      	ldr	r3, [r0, #0]
 8002d30:	6a98      	ldr	r0, [r3, #40]	@ 0x28
 8002d32:	6048      	str	r0, [r1, #4]
 8002d34:	6918      	ldr	r0, [r3, #16]
 8002d36:	681b      	ldr	r3, [r3, #0]
 8002d38:	f3c0 000e 	ubfx	r0, r0, #0, #15
 8002d3c:	f3c3 2506 	ubfx	r5, r3, #8, #7
 8002d40:	f003 047f 	and.w	r4, r3, #127	@ 0x7f
 8002d44:	6088      	str	r0, [r1, #8]
 8002d46:	f3c3 4005 	ubfx	r0, r3, #16, #6
 8002d4a:	f3c3 5380 	ubfx	r3, r3, #22, #1
 8002d4e:	7008      	strb	r0, [r1, #0]
 8002d50:	704d      	strb	r5, [r1, #1]
 8002d52:	708c      	strb	r4, [r1, #2]
 8002d54:	70cb      	strb	r3, [r1, #3]
 8002d56:	b952      	cbnz	r2, 8002d6e <HAL_RTC_GetTime+0x42>
 8002d58:	f7ff ffdf 	bl	8002d1a <RTC_Bcd2ToByte>
 8002d5c:	7008      	strb	r0, [r1, #0]
 8002d5e:	4628      	mov	r0, r5
 8002d60:	f7ff ffdb 	bl	8002d1a <RTC_Bcd2ToByte>
 8002d64:	7048      	strb	r0, [r1, #1]
 8002d66:	4620      	mov	r0, r4
 8002d68:	f7ff ffd7 	bl	8002d1a <RTC_Bcd2ToByte>
 8002d6c:	7088      	strb	r0, [r1, #2]
 8002d6e:	2000      	movs	r0, #0
 8002d70:	bd38      	pop	{r3, r4, r5, pc}

08002d72 <HAL_RTC_GetDate>:
 8002d72:	b538      	push	{r3, r4, r5, lr}
 8002d74:	6803      	ldr	r3, [r0, #0]
 8002d76:	685b      	ldr	r3, [r3, #4]
 8002d78:	f3c3 4007 	ubfx	r0, r3, #16, #8
 8002d7c:	f3c3 2504 	ubfx	r5, r3, #8, #5
 8002d80:	f003 043f 	and.w	r4, r3, #63	@ 0x3f
 8002d84:	f3c3 3342 	ubfx	r3, r3, #13, #3
 8002d88:	70c8      	strb	r0, [r1, #3]
 8002d8a:	704d      	strb	r5, [r1, #1]
 8002d8c:	708c      	strb	r4, [r1, #2]
 8002d8e:	700b      	strb	r3, [r1, #0]
 8002d90:	b952      	cbnz	r2, 8002da8 <HAL_RTC_GetDate+0x36>
 8002d92:	f7ff ffc2 	bl	8002d1a <RTC_Bcd2ToByte>
 8002d96:	70c8      	strb	r0, [r1, #3]
 8002d98:	4628      	mov	r0, r5
 8002d9a:	f7ff ffbe 	bl	8002d1a <RTC_Bcd2ToByte>
 8002d9e:	7048      	strb	r0, [r1, #1]
 8002da0:	4620      	mov	r0, r4
 8002da2:	f7ff ffba 	bl	8002d1a <RTC_Bcd2ToByte>
 8002da6:	7088      	strb	r0, [r1, #2]
 8002da8:	2000      	movs	r0, #0
 8002daa:	bd38      	pop	{r3, r4, r5, pc}

08002dac <HAL_RTCEx_BKUPWrite>:
 8002dac:	6803      	ldr	r3, [r0, #0]
 8002dae:	3350      	adds	r3, #80	@ 0x50
 8002db0:	f843 2021 	str.w	r2, [r3, r1, lsl #2]
 8002db4:	4770      	bx	lr

08002db6 <HAL_RTCEx_BKUPRead>:
 8002db6:	6803      	ldr	r3, [r0, #0]
 8002db8:	3350      	adds	r3, #80	@ 0x50
 8002dba:	f853 0021 	ldr.w	r0, [r3, r1, lsl #2]
 8002dbe:	4770      	bx	lr

08002dc0 <SPI_WaitFlagStateUntilTimeout>:
 8002dc0:	e92d 47f3 	stmdb	sp!, {r0, r1, r4, r5, r6, r7, r8, r9, sl, lr}
 8002dc4:	461f      	mov	r7, r3
 8002dc6:	4689      	mov	r9, r1
 8002dc8:	4690      	mov	r8, r2
 8002dca:	4604      	mov	r4, r0
 8002dcc:	f7fe feb0 	bl	8001b30 <HAL_GetTick>
 8002dd0:	9d0a      	ldr	r5, [sp, #40]	@ 0x28
 8002dd2:	443d      	add	r5, r7
 8002dd4:	1a2d      	subs	r5, r5, r0
 8002dd6:	f7fe feab 	bl	8001b30 <HAL_GetTick>
 8002dda:	4b26      	ldr	r3, [pc, #152]	@ (8002e74 <SPI_WaitFlagStateUntilTimeout+0xb4>)
 8002ddc:	681e      	ldr	r6, [r3, #0]
 8002dde:	f3c6 36cb 	ubfx	r6, r6, #15, #12
 8002de2:	436e      	muls	r6, r5
 8002de4:	4682      	mov	sl, r0
 8002de6:	9601      	str	r6, [sp, #4]
 8002de8:	6822      	ldr	r2, [r4, #0]
 8002dea:	6893      	ldr	r3, [r2, #8]
 8002dec:	ea39 0303 	bics.w	r3, r9, r3
 8002df0:	bf0c      	ite	eq
 8002df2:	2301      	moveq	r3, #1
 8002df4:	2300      	movne	r3, #0
 8002df6:	4543      	cmp	r3, r8
 8002df8:	d101      	bne.n	8002dfe <SPI_WaitFlagStateUntilTimeout+0x3e>
 8002dfa:	2000      	movs	r0, #0
 8002dfc:	e02e      	b.n	8002e5c <SPI_WaitFlagStateUntilTimeout+0x9c>
 8002dfe:	1c7b      	adds	r3, r7, #1
 8002e00:	d0f3      	beq.n	8002dea <SPI_WaitFlagStateUntilTimeout+0x2a>
 8002e02:	f7fe fe95 	bl	8001b30 <HAL_GetTick>
 8002e06:	eba0 000a 	sub.w	r0, r0, sl
 8002e0a:	42a8      	cmp	r0, r5
 8002e0c:	d329      	bcc.n	8002e62 <SPI_WaitFlagStateUntilTimeout+0xa2>
 8002e0e:	6823      	ldr	r3, [r4, #0]
 8002e10:	685a      	ldr	r2, [r3, #4]
 8002e12:	f022 02e0 	bic.w	r2, r2, #224	@ 0xe0
 8002e16:	605a      	str	r2, [r3, #4]
 8002e18:	6862      	ldr	r2, [r4, #4]
 8002e1a:	f5b2 7f82 	cmp.w	r2, #260	@ 0x104
 8002e1e:	d10a      	bne.n	8002e36 <SPI_WaitFlagStateUntilTimeout+0x76>
 8002e20:	68a2      	ldr	r2, [r4, #8]
 8002e22:	f5b2 4f00 	cmp.w	r2, #32768	@ 0x8000
 8002e26:	d002      	beq.n	8002e2e <SPI_WaitFlagStateUntilTimeout+0x6e>
 8002e28:	f5b2 6f80 	cmp.w	r2, #1024	@ 0x400
 8002e2c:	d103      	bne.n	8002e36 <SPI_WaitFlagStateUntilTimeout+0x76>
 8002e2e:	681a      	ldr	r2, [r3, #0]
 8002e30:	f022 0240 	bic.w	r2, r2, #64	@ 0x40
 8002e34:	601a      	str	r2, [r3, #0]
 8002e36:	6aa2      	ldr	r2, [r4, #40]	@ 0x28
 8002e38:	f5b2 5f00 	cmp.w	r2, #8192	@ 0x2000
 8002e3c:	d107      	bne.n	8002e4e <SPI_WaitFlagStateUntilTimeout+0x8e>
 8002e3e:	681a      	ldr	r2, [r3, #0]
 8002e40:	f422 5200 	bic.w	r2, r2, #8192	@ 0x2000
 8002e44:	601a      	str	r2, [r3, #0]
 8002e46:	681a      	ldr	r2, [r3, #0]
 8002e48:	f442 5200 	orr.w	r2, r2, #8192	@ 0x2000
 8002e4c:	601a      	str	r2, [r3, #0]
 8002e4e:	2301      	movs	r3, #1
 8002e50:	f884 3051 	strb.w	r3, [r4, #81]	@ 0x51
 8002e54:	2300      	movs	r3, #0
 8002e56:	f884 3050 	strb.w	r3, [r4, #80]	@ 0x50
 8002e5a:	2003      	movs	r0, #3
 8002e5c:	b002      	add	sp, #8
 8002e5e:	e8bd 87f0 	ldmia.w	sp!, {r4, r5, r6, r7, r8, r9, sl, pc}
 8002e62:	9a01      	ldr	r2, [sp, #4]
 8002e64:	9b01      	ldr	r3, [sp, #4]
 8002e66:	2a00      	cmp	r2, #0
 8002e68:	f103 33ff 	add.w	r3, r3, #4294967295
 8002e6c:	9301      	str	r3, [sp, #4]
 8002e6e:	bf08      	it	eq
 8002e70:	4615      	moveq	r5, r2
 8002e72:	e7b9      	b.n	8002de8 <SPI_WaitFlagStateUntilTimeout+0x28>
 8002e74:	20000004 	.word	0x20000004

08002e78 <SPI_EndRxTxTransaction>:
 8002e78:	b5f0      	push	{r4, r5, r6, r7, lr}
 8002e7a:	b085      	sub	sp, #20
 8002e7c:	460b      	mov	r3, r1
 8002e7e:	9200      	str	r2, [sp, #0]
 8002e80:	460e      	mov	r6, r1
 8002e82:	4617      	mov	r7, r2
 8002e84:	2102      	movs	r1, #2
 8002e86:	2201      	movs	r2, #1
 8002e88:	4604      	mov	r4, r0
 8002e8a:	f7ff ff99 	bl	8002dc0 <SPI_WaitFlagStateUntilTimeout>
 8002e8e:	4605      	mov	r5, r0
 8002e90:	b128      	cbz	r0, 8002e9e <SPI_EndRxTxTransaction+0x26>
 8002e92:	6d63      	ldr	r3, [r4, #84]	@ 0x54
 8002e94:	f043 0320 	orr.w	r3, r3, #32
 8002e98:	6563      	str	r3, [r4, #84]	@ 0x54
 8002e9a:	2503      	movs	r5, #3
 8002e9c:	e015      	b.n	8002eca <SPI_EndRxTxTransaction+0x52>
 8002e9e:	4b12      	ldr	r3, [pc, #72]	@ (8002ee8 <SPI_EndRxTxTransaction+0x70>)
 8002ea0:	6818      	ldr	r0, [r3, #0]
 8002ea2:	4b12      	ldr	r3, [pc, #72]	@ (8002eec <SPI_EndRxTxTransaction+0x74>)
 8002ea4:	fbb0 f0f3 	udiv	r0, r0, r3
 8002ea8:	f44f 737a 	mov.w	r3, #1000	@ 0x3e8
 8002eac:	4358      	muls	r0, r3
 8002eae:	6863      	ldr	r3, [r4, #4]
 8002eb0:	9003      	str	r0, [sp, #12]
 8002eb2:	f5b3 7f82 	cmp.w	r3, #260	@ 0x104
 8002eb6:	d10b      	bne.n	8002ed0 <SPI_EndRxTxTransaction+0x58>
 8002eb8:	9700      	str	r7, [sp, #0]
 8002eba:	4633      	mov	r3, r6
 8002ebc:	462a      	mov	r2, r5
 8002ebe:	2180      	movs	r1, #128	@ 0x80
 8002ec0:	4620      	mov	r0, r4
 8002ec2:	f7ff ff7d 	bl	8002dc0 <SPI_WaitFlagStateUntilTimeout>
 8002ec6:	2800      	cmp	r0, #0
 8002ec8:	d1e3      	bne.n	8002e92 <SPI_EndRxTxTransaction+0x1a>
 8002eca:	4628      	mov	r0, r5
 8002ecc:	b005      	add	sp, #20
 8002ece:	bdf0      	pop	{r4, r5, r6, r7, pc}
 8002ed0:	9b03      	ldr	r3, [sp, #12]
 8002ed2:	2b00      	cmp	r3, #0
 8002ed4:	d0f9      	beq.n	8002eca <SPI_EndRxTxTransaction+0x52>
 8002ed6:	9b03      	ldr	r3, [sp, #12]
 8002ed8:	3b01      	subs	r3, #1
 8002eda:	9303      	str	r3, [sp, #12]
 8002edc:	6823      	ldr	r3, [r4, #0]
 8002ede:	689b      	ldr	r3, [r3, #8]
 8002ee0:	061b      	lsls	r3, r3, #24
 8002ee2:	d4f5      	bmi.n	8002ed0 <SPI_EndRxTxTransaction+0x58>
 8002ee4:	e7f1      	b.n	8002eca <SPI_EndRxTxTransaction+0x52>
 8002ee6:	bf00      	nop
 8002ee8:	20000004 	.word	0x20000004
 8002eec:	016e3600 	.word	0x016e3600

08002ef0 <HAL_SPI_Init>:
 8002ef0:	b510      	push	{r4, lr}
 8002ef2:	4604      	mov	r4, r0
 8002ef4:	2800      	cmp	r0, #0
 8002ef6:	d055      	beq.n	8002fa4 <HAL_SPI_Init+0xb4>
 8002ef8:	6a43      	ldr	r3, [r0, #36]	@ 0x24
 8002efa:	2b00      	cmp	r3, #0
 8002efc:	d14e      	bne.n	8002f9c <HAL_SPI_Init+0xac>
 8002efe:	6842      	ldr	r2, [r0, #4]
 8002f00:	f5b2 7f82 	cmp.w	r2, #260	@ 0x104
 8002f04:	d000      	beq.n	8002f08 <HAL_SPI_Init+0x18>
 8002f06:	61c3      	str	r3, [r0, #28]
 8002f08:	2300      	movs	r3, #0
 8002f0a:	62a3      	str	r3, [r4, #40]	@ 0x28
 8002f0c:	f894 3051 	ldrb.w	r3, [r4, #81]	@ 0x51
 8002f10:	f003 02ff 	and.w	r2, r3, #255	@ 0xff
 8002f14:	b923      	cbnz	r3, 8002f20 <HAL_SPI_Init+0x30>
 8002f16:	f884 2050 	strb.w	r2, [r4, #80]	@ 0x50
 8002f1a:	4620      	mov	r0, r4
 8002f1c:	f7fe fcc0 	bl	80018a0 <HAL_SPI_MspInit>
 8002f20:	6821      	ldr	r1, [r4, #0]
 8002f22:	68a0      	ldr	r0, [r4, #8]
 8002f24:	69a2      	ldr	r2, [r4, #24]
 8002f26:	2302      	movs	r3, #2
 8002f28:	f884 3051 	strb.w	r3, [r4, #81]	@ 0x51
 8002f2c:	680b      	ldr	r3, [r1, #0]
 8002f2e:	f023 0340 	bic.w	r3, r3, #64	@ 0x40
 8002f32:	600b      	str	r3, [r1, #0]
 8002f34:	6863      	ldr	r3, [r4, #4]
 8002f36:	f400 4004 	and.w	r0, r0, #33792	@ 0x8400
 8002f3a:	f403 7382 	and.w	r3, r3, #260	@ 0x104
 8002f3e:	4303      	orrs	r3, r0
 8002f40:	68e0      	ldr	r0, [r4, #12]
 8002f42:	f400 6000 	and.w	r0, r0, #2048	@ 0x800
 8002f46:	4303      	orrs	r3, r0
 8002f48:	6920      	ldr	r0, [r4, #16]
 8002f4a:	f000 0002 	and.w	r0, r0, #2
 8002f4e:	4303      	orrs	r3, r0
 8002f50:	6960      	ldr	r0, [r4, #20]
 8002f52:	f000 0001 	and.w	r0, r0, #1
 8002f56:	4303      	orrs	r3, r0
 8002f58:	f402 7000 	and.w	r0, r2, #512	@ 0x200
 8002f5c:	4303      	orrs	r3, r0
 8002f5e:	69e0      	ldr	r0, [r4, #28]
 8002f60:	f000 0038 	and.w	r0, r0, #56	@ 0x38
 8002f64:	4303      	orrs	r3, r0
 8002f66:	6a20      	ldr	r0, [r4, #32]
 8002f68:	f000 0080 	and.w	r0, r0, #128	@ 0x80
 8002f6c:	4303      	orrs	r3, r0
 8002f6e:	6aa0      	ldr	r0, [r4, #40]	@ 0x28
 8002f70:	f400 5000 	and.w	r0, r0, #8192	@ 0x2000
 8002f74:	4303      	orrs	r3, r0
 8002f76:	600b      	str	r3, [r1, #0]
 8002f78:	6a63      	ldr	r3, [r4, #36]	@ 0x24
 8002f7a:	0c12      	lsrs	r2, r2, #16
 8002f7c:	f003 0310 	and.w	r3, r3, #16
 8002f80:	f002 0204 	and.w	r2, r2, #4
 8002f84:	431a      	orrs	r2, r3
 8002f86:	604a      	str	r2, [r1, #4]
 8002f88:	69cb      	ldr	r3, [r1, #28]
 8002f8a:	f423 6300 	bic.w	r3, r3, #2048	@ 0x800
 8002f8e:	61cb      	str	r3, [r1, #28]
 8002f90:	2000      	movs	r0, #0
 8002f92:	2301      	movs	r3, #1
 8002f94:	6560      	str	r0, [r4, #84]	@ 0x54
 8002f96:	f884 3051 	strb.w	r3, [r4, #81]	@ 0x51
 8002f9a:	bd10      	pop	{r4, pc}
 8002f9c:	2300      	movs	r3, #0
 8002f9e:	e9c0 3304 	strd	r3, r3, [r0, #16]
 8002fa2:	e7b1      	b.n	8002f08 <HAL_SPI_Init+0x18>
 8002fa4:	2001      	movs	r0, #1
 8002fa6:	e7f8      	b.n	8002f9a <HAL_SPI_Init+0xaa>

08002fa8 <HAL_SPI_Transmit>:
 8002fa8:	e92d 43f7 	stmdb	sp!, {r0, r1, r2, r4, r5, r6, r7, r8, r9, lr}
 8002fac:	4604      	mov	r4, r0
 8002fae:	461f      	mov	r7, r3
 8002fb0:	460d      	mov	r5, r1
 8002fb2:	4690      	mov	r8, r2
 8002fb4:	f7fe fdbc 	bl	8001b30 <HAL_GetTick>
 8002fb8:	f894 3051 	ldrb.w	r3, [r4, #81]	@ 0x51
 8002fbc:	2b01      	cmp	r3, #1
 8002fbe:	4681      	mov	r9, r0
 8002fc0:	b2d8      	uxtb	r0, r3
 8002fc2:	f040 809f 	bne.w	8003104 <HAL_SPI_Transmit+0x15c>
 8002fc6:	2d00      	cmp	r5, #0
 8002fc8:	d074      	beq.n	80030b4 <HAL_SPI_Transmit+0x10c>
 8002fca:	f1b8 0f00 	cmp.w	r8, #0
 8002fce:	d071      	beq.n	80030b4 <HAL_SPI_Transmit+0x10c>
 8002fd0:	f894 3050 	ldrb.w	r3, [r4, #80]	@ 0x50
 8002fd4:	2b01      	cmp	r3, #1
 8002fd6:	f000 8095 	beq.w	8003104 <HAL_SPI_Transmit+0x15c>
 8002fda:	2303      	movs	r3, #3
 8002fdc:	f884 3051 	strb.w	r3, [r4, #81]	@ 0x51
 8002fe0:	2300      	movs	r3, #0
 8002fe2:	6563      	str	r3, [r4, #84]	@ 0x54
 8002fe4:	e9c4 3310 	strd	r3, r3, [r4, #64]	@ 0x40
 8002fe8:	f8a4 8036 	strh.w	r8, [r4, #54]	@ 0x36
 8002fec:	63a3      	str	r3, [r4, #56]	@ 0x38
 8002fee:	87a3      	strh	r3, [r4, #60]	@ 0x3c
 8002ff0:	87e3      	strh	r3, [r4, #62]	@ 0x3e
 8002ff2:	68a3      	ldr	r3, [r4, #8]
 8002ff4:	6826      	ldr	r6, [r4, #0]
 8002ff6:	f884 0050 	strb.w	r0, [r4, #80]	@ 0x50
 8002ffa:	f5b3 4f00 	cmp.w	r3, #32768	@ 0x8000
 8002ffe:	6325      	str	r5, [r4, #48]	@ 0x30
 8003000:	f8a4 8034 	strh.w	r8, [r4, #52]	@ 0x34
 8003004:	d107      	bne.n	8003016 <HAL_SPI_Transmit+0x6e>
 8003006:	6833      	ldr	r3, [r6, #0]
 8003008:	f023 0340 	bic.w	r3, r3, #64	@ 0x40
 800300c:	6033      	str	r3, [r6, #0]
 800300e:	6833      	ldr	r3, [r6, #0]
 8003010:	f443 4380 	orr.w	r3, r3, #16384	@ 0x4000
 8003014:	6033      	str	r3, [r6, #0]
 8003016:	6833      	ldr	r3, [r6, #0]
 8003018:	68e2      	ldr	r2, [r4, #12]
 800301a:	065b      	lsls	r3, r3, #25
 800301c:	bf5e      	ittt	pl
 800301e:	6833      	ldrpl	r3, [r6, #0]
 8003020:	f043 0340 	orrpl.w	r3, r3, #64	@ 0x40
 8003024:	6033      	strpl	r3, [r6, #0]
 8003026:	f5b2 6f00 	cmp.w	r2, #2048	@ 0x800
 800302a:	6863      	ldr	r3, [r4, #4]
 800302c:	d145      	bne.n	80030ba <HAL_SPI_Transmit+0x112>
 800302e:	b113      	cbz	r3, 8003036 <HAL_SPI_Transmit+0x8e>
 8003030:	f1b8 0f01 	cmp.w	r8, #1
 8003034:	d107      	bne.n	8003046 <HAL_SPI_Transmit+0x9e>
 8003036:	f835 3b02 	ldrh.w	r3, [r5], #2
 800303a:	60f3      	str	r3, [r6, #12]
 800303c:	6325      	str	r5, [r4, #48]	@ 0x30
 800303e:	8ee3      	ldrh	r3, [r4, #54]	@ 0x36
 8003040:	3b01      	subs	r3, #1
 8003042:	b29b      	uxth	r3, r3
 8003044:	86e3      	strh	r3, [r4, #54]	@ 0x36
 8003046:	8ee3      	ldrh	r3, [r4, #54]	@ 0x36
 8003048:	b29b      	uxth	r3, r3
 800304a:	b9d3      	cbnz	r3, 8003082 <HAL_SPI_Transmit+0xda>
 800304c:	464a      	mov	r2, r9
 800304e:	4639      	mov	r1, r7
 8003050:	4620      	mov	r0, r4
 8003052:	f7ff ff11 	bl	8002e78 <SPI_EndRxTxTransaction>
 8003056:	2800      	cmp	r0, #0
 8003058:	d151      	bne.n	80030fe <HAL_SPI_Transmit+0x156>
 800305a:	68a3      	ldr	r3, [r4, #8]
 800305c:	b933      	cbnz	r3, 800306c <HAL_SPI_Transmit+0xc4>
 800305e:	9301      	str	r3, [sp, #4]
 8003060:	6823      	ldr	r3, [r4, #0]
 8003062:	68da      	ldr	r2, [r3, #12]
 8003064:	9201      	str	r2, [sp, #4]
 8003066:	689b      	ldr	r3, [r3, #8]
 8003068:	9301      	str	r3, [sp, #4]
 800306a:	9b01      	ldr	r3, [sp, #4]
 800306c:	2301      	movs	r3, #1
 800306e:	f884 3051 	strb.w	r3, [r4, #81]	@ 0x51
 8003072:	6d60      	ldr	r0, [r4, #84]	@ 0x54
 8003074:	2300      	movs	r3, #0
 8003076:	1ac0      	subs	r0, r0, r3
 8003078:	f884 3050 	strb.w	r3, [r4, #80]	@ 0x50
 800307c:	bf18      	it	ne
 800307e:	2001      	movne	r0, #1
 8003080:	e018      	b.n	80030b4 <HAL_SPI_Transmit+0x10c>
 8003082:	6822      	ldr	r2, [r4, #0]
 8003084:	6893      	ldr	r3, [r2, #8]
 8003086:	0798      	lsls	r0, r3, #30
 8003088:	d505      	bpl.n	8003096 <HAL_SPI_Transmit+0xee>
 800308a:	6b23      	ldr	r3, [r4, #48]	@ 0x30
 800308c:	f833 1b02 	ldrh.w	r1, [r3], #2
 8003090:	60d1      	str	r1, [r2, #12]
 8003092:	6323      	str	r3, [r4, #48]	@ 0x30
 8003094:	e7d3      	b.n	800303e <HAL_SPI_Transmit+0x96>
 8003096:	f7fe fd4b 	bl	8001b30 <HAL_GetTick>
 800309a:	eba0 0009 	sub.w	r0, r0, r9
 800309e:	42b8      	cmp	r0, r7
 80030a0:	d3d1      	bcc.n	8003046 <HAL_SPI_Transmit+0x9e>
 80030a2:	1c79      	adds	r1, r7, #1
 80030a4:	d0cf      	beq.n	8003046 <HAL_SPI_Transmit+0x9e>
 80030a6:	2301      	movs	r3, #1
 80030a8:	f884 3051 	strb.w	r3, [r4, #81]	@ 0x51
 80030ac:	2300      	movs	r3, #0
 80030ae:	f884 3050 	strb.w	r3, [r4, #80]	@ 0x50
 80030b2:	2003      	movs	r0, #3
 80030b4:	b003      	add	sp, #12
 80030b6:	e8bd 83f0 	ldmia.w	sp!, {r4, r5, r6, r7, r8, r9, pc}
 80030ba:	b113      	cbz	r3, 80030c2 <HAL_SPI_Transmit+0x11a>
 80030bc:	f1b8 0f01 	cmp.w	r8, #1
 80030c0:	d108      	bne.n	80030d4 <HAL_SPI_Transmit+0x12c>
 80030c2:	782b      	ldrb	r3, [r5, #0]
 80030c4:	7333      	strb	r3, [r6, #12]
 80030c6:	6b23      	ldr	r3, [r4, #48]	@ 0x30
 80030c8:	3301      	adds	r3, #1
 80030ca:	6323      	str	r3, [r4, #48]	@ 0x30
 80030cc:	8ee3      	ldrh	r3, [r4, #54]	@ 0x36
 80030ce:	3b01      	subs	r3, #1
 80030d0:	b29b      	uxth	r3, r3
 80030d2:	86e3      	strh	r3, [r4, #54]	@ 0x36
 80030d4:	8ee3      	ldrh	r3, [r4, #54]	@ 0x36
 80030d6:	b29b      	uxth	r3, r3
 80030d8:	2b00      	cmp	r3, #0
 80030da:	d0b7      	beq.n	800304c <HAL_SPI_Transmit+0xa4>
 80030dc:	6823      	ldr	r3, [r4, #0]
 80030de:	689a      	ldr	r2, [r3, #8]
 80030e0:	0792      	lsls	r2, r2, #30
 80030e2:	d503      	bpl.n	80030ec <HAL_SPI_Transmit+0x144>
 80030e4:	6b22      	ldr	r2, [r4, #48]	@ 0x30
 80030e6:	7812      	ldrb	r2, [r2, #0]
 80030e8:	731a      	strb	r2, [r3, #12]
 80030ea:	e7ec      	b.n	80030c6 <HAL_SPI_Transmit+0x11e>
 80030ec:	f7fe fd20 	bl	8001b30 <HAL_GetTick>
 80030f0:	eba0 0009 	sub.w	r0, r0, r9
 80030f4:	42b8      	cmp	r0, r7
 80030f6:	d3ed      	bcc.n	80030d4 <HAL_SPI_Transmit+0x12c>
 80030f8:	1c7b      	adds	r3, r7, #1
 80030fa:	d0eb      	beq.n	80030d4 <HAL_SPI_Transmit+0x12c>
 80030fc:	e7d3      	b.n	80030a6 <HAL_SPI_Transmit+0xfe>
 80030fe:	2320      	movs	r3, #32
 8003100:	6563      	str	r3, [r4, #84]	@ 0x54
 8003102:	e7aa      	b.n	800305a <HAL_SPI_Transmit+0xb2>
 8003104:	2002      	movs	r0, #2
 8003106:	e7d5      	b.n	80030b4 <HAL_SPI_Transmit+0x10c>

08003108 <HAL_SPI_TransmitReceive>:
 8003108:	e92d 43f7 	stmdb	sp!, {r0, r1, r2, r4, r5, r6, r7, r8, r9, lr}
 800310c:	4604      	mov	r4, r0
 800310e:	460d      	mov	r5, r1
 8003110:	4691      	mov	r9, r2
 8003112:	461e      	mov	r6, r3
 8003114:	f8dd 8028 	ldr.w	r8, [sp, #40]	@ 0x28
 8003118:	f7fe fd0a 	bl	8001b30 <HAL_GetTick>
 800311c:	f894 3051 	ldrb.w	r3, [r4, #81]	@ 0x51
 8003120:	6862      	ldr	r2, [r4, #4]
 8003122:	2b01      	cmp	r3, #1
 8003124:	4607      	mov	r7, r0
 8003126:	b2d9      	uxtb	r1, r3
 8003128:	d00a      	beq.n	8003140 <HAL_SPI_TransmitReceive+0x38>
 800312a:	f5b2 7f82 	cmp.w	r2, #260	@ 0x104
 800312e:	f040 80e5 	bne.w	80032fc <HAL_SPI_TransmitReceive+0x1f4>
 8003132:	68a3      	ldr	r3, [r4, #8]
 8003134:	2b00      	cmp	r3, #0
 8003136:	f040 80e1 	bne.w	80032fc <HAL_SPI_TransmitReceive+0x1f4>
 800313a:	2904      	cmp	r1, #4
 800313c:	f040 80de 	bne.w	80032fc <HAL_SPI_TransmitReceive+0x1f4>
 8003140:	2d00      	cmp	r5, #0
 8003142:	d04b      	beq.n	80031dc <HAL_SPI_TransmitReceive+0xd4>
 8003144:	f1b9 0f00 	cmp.w	r9, #0
 8003148:	d048      	beq.n	80031dc <HAL_SPI_TransmitReceive+0xd4>
 800314a:	2e00      	cmp	r6, #0
 800314c:	d046      	beq.n	80031dc <HAL_SPI_TransmitReceive+0xd4>
 800314e:	f894 3050 	ldrb.w	r3, [r4, #80]	@ 0x50
 8003152:	2b01      	cmp	r3, #1
 8003154:	f000 80d2 	beq.w	80032fc <HAL_SPI_TransmitReceive+0x1f4>
 8003158:	2301      	movs	r3, #1
 800315a:	f884 3050 	strb.w	r3, [r4, #80]	@ 0x50
 800315e:	f894 3051 	ldrb.w	r3, [r4, #81]	@ 0x51
 8003162:	f8c4 9038 	str.w	r9, [r4, #56]	@ 0x38
 8003166:	2b04      	cmp	r3, #4
 8003168:	bf1c      	itt	ne
 800316a:	2305      	movne	r3, #5
 800316c:	f884 3051 	strbne.w	r3, [r4, #81]	@ 0x51
 8003170:	2300      	movs	r3, #0
 8003172:	6563      	str	r3, [r4, #84]	@ 0x54
 8003174:	e9c4 3310 	strd	r3, r3, [r4, #64]	@ 0x40
 8003178:	6823      	ldr	r3, [r4, #0]
 800317a:	87e6      	strh	r6, [r4, #62]	@ 0x3e
 800317c:	86e6      	strh	r6, [r4, #54]	@ 0x36
 800317e:	6819      	ldr	r1, [r3, #0]
 8003180:	87a6      	strh	r6, [r4, #60]	@ 0x3c
 8003182:	0649      	lsls	r1, r1, #25
 8003184:	bf58      	it	pl
 8003186:	6819      	ldrpl	r1, [r3, #0]
 8003188:	6325      	str	r5, [r4, #48]	@ 0x30
 800318a:	bf58      	it	pl
 800318c:	f041 0140 	orrpl.w	r1, r1, #64	@ 0x40
 8003190:	86a6      	strh	r6, [r4, #52]	@ 0x34
 8003192:	bf58      	it	pl
 8003194:	6019      	strpl	r1, [r3, #0]
 8003196:	68e1      	ldr	r1, [r4, #12]
 8003198:	f5b1 6f00 	cmp.w	r1, #2048	@ 0x800
 800319c:	d155      	bne.n	800324a <HAL_SPI_TransmitReceive+0x142>
 800319e:	b10a      	cbz	r2, 80031a4 <HAL_SPI_TransmitReceive+0x9c>
 80031a0:	2e01      	cmp	r6, #1
 80031a2:	d107      	bne.n	80031b4 <HAL_SPI_TransmitReceive+0xac>
 80031a4:	f835 2b02 	ldrh.w	r2, [r5], #2
 80031a8:	60da      	str	r2, [r3, #12]
 80031aa:	8ee3      	ldrh	r3, [r4, #54]	@ 0x36
 80031ac:	6325      	str	r5, [r4, #48]	@ 0x30
 80031ae:	3b01      	subs	r3, #1
 80031b0:	b29b      	uxth	r3, r3
 80031b2:	86e3      	strh	r3, [r4, #54]	@ 0x36
 80031b4:	2501      	movs	r5, #1
 80031b6:	8ee3      	ldrh	r3, [r4, #54]	@ 0x36
 80031b8:	b29b      	uxth	r3, r3
 80031ba:	b98b      	cbnz	r3, 80031e0 <HAL_SPI_TransmitReceive+0xd8>
 80031bc:	8fe3      	ldrh	r3, [r4, #62]	@ 0x3e
 80031be:	b29b      	uxth	r3, r3
 80031c0:	b973      	cbnz	r3, 80031e0 <HAL_SPI_TransmitReceive+0xd8>
 80031c2:	463a      	mov	r2, r7
 80031c4:	4641      	mov	r1, r8
 80031c6:	4620      	mov	r0, r4
 80031c8:	f7ff fe56 	bl	8002e78 <SPI_EndRxTxTransaction>
 80031cc:	2800      	cmp	r0, #0
 80031ce:	f000 8081 	beq.w	80032d4 <HAL_SPI_TransmitReceive+0x1cc>
 80031d2:	2320      	movs	r3, #32
 80031d4:	6563      	str	r3, [r4, #84]	@ 0x54
 80031d6:	2300      	movs	r3, #0
 80031d8:	f884 3050 	strb.w	r3, [r4, #80]	@ 0x50
 80031dc:	2001      	movs	r0, #1
 80031de:	e031      	b.n	8003244 <HAL_SPI_TransmitReceive+0x13c>
 80031e0:	6821      	ldr	r1, [r4, #0]
 80031e2:	688b      	ldr	r3, [r1, #8]
 80031e4:	079a      	lsls	r2, r3, #30
 80031e6:	d50d      	bpl.n	8003204 <HAL_SPI_TransmitReceive+0xfc>
 80031e8:	8ee3      	ldrh	r3, [r4, #54]	@ 0x36
 80031ea:	b29b      	uxth	r3, r3
 80031ec:	b153      	cbz	r3, 8003204 <HAL_SPI_TransmitReceive+0xfc>
 80031ee:	b145      	cbz	r5, 8003202 <HAL_SPI_TransmitReceive+0xfa>
 80031f0:	6b23      	ldr	r3, [r4, #48]	@ 0x30
 80031f2:	f833 2b02 	ldrh.w	r2, [r3], #2
 80031f6:	60ca      	str	r2, [r1, #12]
 80031f8:	6323      	str	r3, [r4, #48]	@ 0x30
 80031fa:	8ee3      	ldrh	r3, [r4, #54]	@ 0x36
 80031fc:	3b01      	subs	r3, #1
 80031fe:	b29b      	uxth	r3, r3
 8003200:	86e3      	strh	r3, [r4, #54]	@ 0x36
 8003202:	2500      	movs	r5, #0
 8003204:	688a      	ldr	r2, [r1, #8]
 8003206:	f012 0201 	ands.w	r2, r2, #1
 800320a:	d00c      	beq.n	8003226 <HAL_SPI_TransmitReceive+0x11e>
 800320c:	8fe3      	ldrh	r3, [r4, #62]	@ 0x3e
 800320e:	b29b      	uxth	r3, r3
 8003210:	b14b      	cbz	r3, 8003226 <HAL_SPI_TransmitReceive+0x11e>
 8003212:	6ba3      	ldr	r3, [r4, #56]	@ 0x38
 8003214:	68c9      	ldr	r1, [r1, #12]
 8003216:	f823 1b02 	strh.w	r1, [r3], #2
 800321a:	63a3      	str	r3, [r4, #56]	@ 0x38
 800321c:	8fe3      	ldrh	r3, [r4, #62]	@ 0x3e
 800321e:	3b01      	subs	r3, #1
 8003220:	b29b      	uxth	r3, r3
 8003222:	87e3      	strh	r3, [r4, #62]	@ 0x3e
 8003224:	4615      	mov	r5, r2
 8003226:	f7fe fc83 	bl	8001b30 <HAL_GetTick>
 800322a:	1bc0      	subs	r0, r0, r7
 800322c:	4540      	cmp	r0, r8
 800322e:	d3c2      	bcc.n	80031b6 <HAL_SPI_TransmitReceive+0xae>
 8003230:	f1b8 3fff 	cmp.w	r8, #4294967295
 8003234:	d0bf      	beq.n	80031b6 <HAL_SPI_TransmitReceive+0xae>
 8003236:	2301      	movs	r3, #1
 8003238:	f884 3051 	strb.w	r3, [r4, #81]	@ 0x51
 800323c:	2300      	movs	r3, #0
 800323e:	f884 3050 	strb.w	r3, [r4, #80]	@ 0x50
 8003242:	2003      	movs	r0, #3
 8003244:	b003      	add	sp, #12
 8003246:	e8bd 83f0 	ldmia.w	sp!, {r4, r5, r6, r7, r8, r9, pc}
 800324a:	b10a      	cbz	r2, 8003250 <HAL_SPI_TransmitReceive+0x148>
 800324c:	2e01      	cmp	r6, #1
 800324e:	d108      	bne.n	8003262 <HAL_SPI_TransmitReceive+0x15a>
 8003250:	782a      	ldrb	r2, [r5, #0]
 8003252:	731a      	strb	r2, [r3, #12]
 8003254:	6b23      	ldr	r3, [r4, #48]	@ 0x30
 8003256:	3301      	adds	r3, #1
 8003258:	6323      	str	r3, [r4, #48]	@ 0x30
 800325a:	8ee3      	ldrh	r3, [r4, #54]	@ 0x36
 800325c:	3b01      	subs	r3, #1
 800325e:	b29b      	uxth	r3, r3
 8003260:	86e3      	strh	r3, [r4, #54]	@ 0x36
 8003262:	2501      	movs	r5, #1
 8003264:	e02d      	b.n	80032c2 <HAL_SPI_TransmitReceive+0x1ba>
 8003266:	6822      	ldr	r2, [r4, #0]
 8003268:	6893      	ldr	r3, [r2, #8]
 800326a:	079b      	lsls	r3, r3, #30
 800326c:	d50e      	bpl.n	800328c <HAL_SPI_TransmitReceive+0x184>
 800326e:	8ee3      	ldrh	r3, [r4, #54]	@ 0x36
 8003270:	b29b      	uxth	r3, r3
 8003272:	b15b      	cbz	r3, 800328c <HAL_SPI_TransmitReceive+0x184>
 8003274:	b14d      	cbz	r5, 800328a <HAL_SPI_TransmitReceive+0x182>
 8003276:	6b23      	ldr	r3, [r4, #48]	@ 0x30
 8003278:	781b      	ldrb	r3, [r3, #0]
 800327a:	7313      	strb	r3, [r2, #12]
 800327c:	6b23      	ldr	r3, [r4, #48]	@ 0x30
 800327e:	3301      	adds	r3, #1
 8003280:	6323      	str	r3, [r4, #48]	@ 0x30
 8003282:	8ee3      	ldrh	r3, [r4, #54]	@ 0x36
 8003284:	3b01      	subs	r3, #1
 8003286:	b29b      	uxth	r3, r3
 8003288:	86e3      	strh	r3, [r4, #54]	@ 0x36
 800328a:	2500      	movs	r5, #0
 800328c:	6822      	ldr	r2, [r4, #0]
 800328e:	6891      	ldr	r1, [r2, #8]
 8003290:	f011 0101 	ands.w	r1, r1, #1
 8003294:	d00d      	beq.n	80032b2 <HAL_SPI_TransmitReceive+0x1aa>
 8003296:	8fe3      	ldrh	r3, [r4, #62]	@ 0x3e
 8003298:	b29b      	uxth	r3, r3
 800329a:	b153      	cbz	r3, 80032b2 <HAL_SPI_TransmitReceive+0x1aa>
 800329c:	6ba3      	ldr	r3, [r4, #56]	@ 0x38
 800329e:	68d2      	ldr	r2, [r2, #12]
 80032a0:	701a      	strb	r2, [r3, #0]
 80032a2:	6ba3      	ldr	r3, [r4, #56]	@ 0x38
 80032a4:	3301      	adds	r3, #1
 80032a6:	63a3      	str	r3, [r4, #56]	@ 0x38
 80032a8:	8fe3      	ldrh	r3, [r4, #62]	@ 0x3e
 80032aa:	3b01      	subs	r3, #1
 80032ac:	b29b      	uxth	r3, r3
 80032ae:	87e3      	strh	r3, [r4, #62]	@ 0x3e
 80032b0:	460d      	mov	r5, r1
 80032b2:	f7fe fc3d 	bl	8001b30 <HAL_GetTick>
 80032b6:	1bc0      	subs	r0, r0, r7
 80032b8:	4540      	cmp	r0, r8
 80032ba:	d302      	bcc.n	80032c2 <HAL_SPI_TransmitReceive+0x1ba>
 80032bc:	f1b8 3fff 	cmp.w	r8, #4294967295
 80032c0:	d1b9      	bne.n	8003236 <HAL_SPI_TransmitReceive+0x12e>
 80032c2:	8ee3      	ldrh	r3, [r4, #54]	@ 0x36
 80032c4:	b29b      	uxth	r3, r3
 80032c6:	2b00      	cmp	r3, #0
 80032c8:	d1cd      	bne.n	8003266 <HAL_SPI_TransmitReceive+0x15e>
 80032ca:	8fe3      	ldrh	r3, [r4, #62]	@ 0x3e
 80032cc:	b29b      	uxth	r3, r3
 80032ce:	2b00      	cmp	r3, #0
 80032d0:	d1c9      	bne.n	8003266 <HAL_SPI_TransmitReceive+0x15e>
 80032d2:	e776      	b.n	80031c2 <HAL_SPI_TransmitReceive+0xba>
 80032d4:	68a3      	ldr	r3, [r4, #8]
 80032d6:	b933      	cbnz	r3, 80032e6 <HAL_SPI_TransmitReceive+0x1de>
 80032d8:	9301      	str	r3, [sp, #4]
 80032da:	6823      	ldr	r3, [r4, #0]
 80032dc:	68da      	ldr	r2, [r3, #12]
 80032de:	9201      	str	r2, [sp, #4]
 80032e0:	689b      	ldr	r3, [r3, #8]
 80032e2:	9301      	str	r3, [sp, #4]
 80032e4:	9b01      	ldr	r3, [sp, #4]
 80032e6:	2301      	movs	r3, #1
 80032e8:	f884 3051 	strb.w	r3, [r4, #81]	@ 0x51
 80032ec:	6d60      	ldr	r0, [r4, #84]	@ 0x54
 80032ee:	2300      	movs	r3, #0
 80032f0:	1ac0      	subs	r0, r0, r3
 80032f2:	f884 3050 	strb.w	r3, [r4, #80]	@ 0x50
 80032f6:	bf18      	it	ne
 80032f8:	2001      	movne	r0, #1
 80032fa:	e7a3      	b.n	8003244 <HAL_SPI_TransmitReceive+0x13c>
 80032fc:	2002      	movs	r0, #2
 80032fe:	e7a1      	b.n	8003244 <HAL_SPI_TransmitReceive+0x13c>

08003300 <UART_EndRxTransfer>:
 8003300:	6802      	ldr	r2, [r0, #0]
 8003302:	f102 030c 	add.w	r3, r2, #12
 8003306:	e853 3f00 	ldrex	r3, [r3]
 800330a:	f423 7390 	bic.w	r3, r3, #288	@ 0x120
 800330e:	320c      	adds	r2, #12
 8003310:	e842 3100 	strex	r1, r3, [r2]
 8003314:	6802      	ldr	r2, [r0, #0]
 8003316:	2900      	cmp	r1, #0
 8003318:	d1f2      	bne.n	8003300 <UART_EndRxTransfer>
 800331a:	f102 0314 	add.w	r3, r2, #20
 800331e:	e853 3f00 	ldrex	r3, [r3]
 8003322:	f023 0301 	bic.w	r3, r3, #1
 8003326:	f102 0c14 	add.w	ip, r2, #20
 800332a:	e84c 3100 	strex	r1, r3, [ip]
 800332e:	2900      	cmp	r1, #0
 8003330:	d1f3      	bne.n	800331a <UART_EndRxTransfer+0x1a>
 8003332:	6b03      	ldr	r3, [r0, #48]	@ 0x30
 8003334:	2b01      	cmp	r3, #1
 8003336:	d10b      	bne.n	8003350 <UART_EndRxTransfer+0x50>
 8003338:	f102 030c 	add.w	r3, r2, #12
 800333c:	e853 3f00 	ldrex	r3, [r3]
 8003340:	f023 0310 	bic.w	r3, r3, #16
 8003344:	f102 0c0c 	add.w	ip, r2, #12
 8003348:	e84c 3100 	strex	r1, r3, [ip]
 800334c:	2900      	cmp	r1, #0
 800334e:	d1f3      	bne.n	8003338 <UART_EndRxTransfer+0x38>
 8003350:	2320      	movs	r3, #32
 8003352:	f880 3042 	strb.w	r3, [r0, #66]	@ 0x42
 8003356:	2300      	movs	r3, #0
 8003358:	6303      	str	r3, [r0, #48]	@ 0x30
 800335a:	4770      	bx	lr

0800335c <UART_SetConfig>:
 800335c:	6802      	ldr	r2, [r0, #0]
 800335e:	68c1      	ldr	r1, [r0, #12]
 8003360:	b538      	push	{r3, r4, r5, lr}
 8003362:	6913      	ldr	r3, [r2, #16]
 8003364:	f423 5340 	bic.w	r3, r3, #12288	@ 0x3000
 8003368:	430b      	orrs	r3, r1
 800336a:	6113      	str	r3, [r2, #16]
 800336c:	4605      	mov	r5, r0
 800336e:	6883      	ldr	r3, [r0, #8]
 8003370:	6900      	ldr	r0, [r0, #16]
 8003372:	68d1      	ldr	r1, [r2, #12]
 8003374:	4303      	orrs	r3, r0
 8003376:	6968      	ldr	r0, [r5, #20]
 8003378:	4303      	orrs	r3, r0
 800337a:	69e8      	ldr	r0, [r5, #28]
 800337c:	f421 4116 	bic.w	r1, r1, #38400	@ 0x9600
 8003380:	f021 010c 	bic.w	r1, r1, #12
 8003384:	4303      	orrs	r3, r0
 8003386:	430b      	orrs	r3, r1
 8003388:	60d3      	str	r3, [r2, #12]
 800338a:	6953      	ldr	r3, [r2, #20]
 800338c:	69a9      	ldr	r1, [r5, #24]
 800338e:	f423 7340 	bic.w	r3, r3, #768	@ 0x300
 8003392:	430b      	orrs	r3, r1
 8003394:	6153      	str	r3, [r2, #20]
 8003396:	4b1f      	ldr	r3, [pc, #124]	@ (8003414 <UART_SetConfig+0xb8>)
 8003398:	429a      	cmp	r2, r3
 800339a:	d003      	beq.n	80033a4 <UART_SetConfig+0x48>
 800339c:	f503 6380 	add.w	r3, r3, #1024	@ 0x400
 80033a0:	429a      	cmp	r2, r3
 80033a2:	d124      	bne.n	80033ee <UART_SetConfig+0x92>
 80033a4:	f7ff fac6 	bl	8002934 <HAL_RCC_GetPCLK2Freq>
 80033a8:	69ea      	ldr	r2, [r5, #28]
 80033aa:	2119      	movs	r1, #25
 80033ac:	f5b2 4f00 	cmp.w	r2, #32768	@ 0x8000
 80033b0:	e9d5 4300 	ldrd	r4, r3, [r5]
 80033b4:	fba0 0101 	umull	r0, r1, r0, r1
 80033b8:	d11c      	bne.n	80033f4 <UART_SetConfig+0x98>
 80033ba:	18da      	adds	r2, r3, r3
 80033bc:	f04f 0500 	mov.w	r5, #0
 80033c0:	eb45 0305 	adc.w	r3, r5, r5
 80033c4:	f7fc ff64 	bl	8000290 <__aeabi_uldivmod>
 80033c8:	2264      	movs	r2, #100	@ 0x64
 80033ca:	fbb0 f1f2 	udiv	r1, r0, r2
 80033ce:	fb02 0311 	mls	r3, r2, r1, r0
 80033d2:	00db      	lsls	r3, r3, #3
 80033d4:	3332      	adds	r3, #50	@ 0x32
 80033d6:	fbb3 f3f2 	udiv	r3, r3, r2
 80033da:	f003 0207 	and.w	r2, r3, #7
 80033de:	005b      	lsls	r3, r3, #1
 80033e0:	eb02 1201 	add.w	r2, r2, r1, lsl #4
 80033e4:	f403 73f8 	and.w	r3, r3, #496	@ 0x1f0
 80033e8:	4413      	add	r3, r2
 80033ea:	60a3      	str	r3, [r4, #8]
 80033ec:	bd38      	pop	{r3, r4, r5, pc}
 80033ee:	f7ff fa91 	bl	8002914 <HAL_RCC_GetPCLK1Freq>
 80033f2:	e7d9      	b.n	80033a8 <UART_SetConfig+0x4c>
 80033f4:	009a      	lsls	r2, r3, #2
 80033f6:	0f9b      	lsrs	r3, r3, #30
 80033f8:	f7fc ff4a 	bl	8000290 <__aeabi_uldivmod>
 80033fc:	2264      	movs	r2, #100	@ 0x64
 80033fe:	fbb0 f1f2 	udiv	r1, r0, r2
 8003402:	fb02 0311 	mls	r3, r2, r1, r0
 8003406:	011b      	lsls	r3, r3, #4
 8003408:	3332      	adds	r3, #50	@ 0x32
 800340a:	fbb3 f3f2 	udiv	r3, r3, r2
 800340e:	eb03 1301 	add.w	r3, r3, r1, lsl #4
 8003412:	e7ea      	b.n	80033ea <UART_SetConfig+0x8e>
 8003414:	40011000 	.word	0x40011000

08003418 <HAL_UART_Init>:
 8003418:	b510      	push	{r4, lr}
 800341a:	4604      	mov	r4, r0
 800341c:	b348      	cbz	r0, 8003472 <HAL_UART_Init+0x5a>
 800341e:	f890 3041 	ldrb.w	r3, [r0, #65]	@ 0x41
 8003422:	f003 02ff 	and.w	r2, r3, #255	@ 0xff
 8003426:	b91b      	cbnz	r3, 8003430 <HAL_UART_Init+0x18>
 8003428:	f880 2040 	strb.w	r2, [r0, #64]	@ 0x40
 800342c:	f7fe fa6e 	bl	800190c <HAL_UART_MspInit>
 8003430:	6822      	ldr	r2, [r4, #0]
 8003432:	2324      	movs	r3, #36	@ 0x24
 8003434:	f884 3041 	strb.w	r3, [r4, #65]	@ 0x41
 8003438:	68d3      	ldr	r3, [r2, #12]
 800343a:	f423 5300 	bic.w	r3, r3, #8192	@ 0x2000
 800343e:	60d3      	str	r3, [r2, #12]
 8003440:	4620      	mov	r0, r4
 8003442:	f7ff ff8b 	bl	800335c <UART_SetConfig>
 8003446:	6823      	ldr	r3, [r4, #0]
 8003448:	691a      	ldr	r2, [r3, #16]
 800344a:	f422 4290 	bic.w	r2, r2, #18432	@ 0x4800
 800344e:	611a      	str	r2, [r3, #16]
 8003450:	695a      	ldr	r2, [r3, #20]
 8003452:	f022 022a 	bic.w	r2, r2, #42	@ 0x2a
 8003456:	615a      	str	r2, [r3, #20]
 8003458:	68da      	ldr	r2, [r3, #12]
 800345a:	f442 5200 	orr.w	r2, r2, #8192	@ 0x2000
 800345e:	60da      	str	r2, [r3, #12]
 8003460:	2000      	movs	r0, #0
 8003462:	2320      	movs	r3, #32
 8003464:	6460      	str	r0, [r4, #68]	@ 0x44
 8003466:	f884 3041 	strb.w	r3, [r4, #65]	@ 0x41
 800346a:	f884 3042 	strb.w	r3, [r4, #66]	@ 0x42
 800346e:	6360      	str	r0, [r4, #52]	@ 0x34
 8003470:	bd10      	pop	{r4, pc}
 8003472:	2001      	movs	r0, #1
 8003474:	e7fc      	b.n	8003470 <HAL_UART_Init+0x58>

08003476 <HAL_UART_TxCpltCallback>:
 8003476:	4770      	bx	lr

08003478 <HAL_UART_ErrorCallback>:
 8003478:	4770      	bx	lr

0800347a <UART_DMAAbortOnError>:
 800347a:	b508      	push	{r3, lr}
 800347c:	6b80      	ldr	r0, [r0, #56]	@ 0x38
 800347e:	2300      	movs	r3, #0
 8003480:	85c3      	strh	r3, [r0, #46]	@ 0x2e
 8003482:	84c3      	strh	r3, [r0, #38]	@ 0x26
 8003484:	f7ff fff8 	bl	8003478 <HAL_UART_ErrorCallback>
 8003488:	bd08      	pop	{r3, pc}

0800348a <HAL_UARTEx_RxEventCallback>:
 800348a:	4770      	bx	lr

0800348c <UART_Receive_IT.isra.0>:
 800348c:	f890 3042 	ldrb.w	r3, [r0, #66]	@ 0x42
 8003490:	2b22      	cmp	r3, #34	@ 0x22
 8003492:	b507      	push	{r0, r1, r2, lr}
 8003494:	d142      	bne.n	800351c <UART_Receive_IT.isra.0+0x90>
 8003496:	6881      	ldr	r1, [r0, #8]
 8003498:	6802      	ldr	r2, [r0, #0]
 800349a:	6a83      	ldr	r3, [r0, #40]	@ 0x28
 800349c:	f5b1 5f80 	cmp.w	r1, #4096	@ 0x1000
 80034a0:	d13f      	bne.n	8003522 <UART_Receive_IT.isra.0+0x96>
 80034a2:	6901      	ldr	r1, [r0, #16]
 80034a4:	2900      	cmp	r1, #0
 80034a6:	d13f      	bne.n	8003528 <UART_Receive_IT.isra.0+0x9c>
 80034a8:	6852      	ldr	r2, [r2, #4]
 80034aa:	f3c2 0208 	ubfx	r2, r2, #0, #9
 80034ae:	f823 2b02 	strh.w	r2, [r3], #2
 80034b2:	6283      	str	r3, [r0, #40]	@ 0x28
 80034b4:	8dc3      	ldrh	r3, [r0, #46]	@ 0x2e
 80034b6:	3b01      	subs	r3, #1
 80034b8:	b29b      	uxth	r3, r3
 80034ba:	85c3      	strh	r3, [r0, #46]	@ 0x2e
 80034bc:	2b00      	cmp	r3, #0
 80034be:	d12d      	bne.n	800351c <UART_Receive_IT.isra.0+0x90>
 80034c0:	6802      	ldr	r2, [r0, #0]
 80034c2:	68d1      	ldr	r1, [r2, #12]
 80034c4:	f021 0120 	bic.w	r1, r1, #32
 80034c8:	60d1      	str	r1, [r2, #12]
 80034ca:	68d1      	ldr	r1, [r2, #12]
 80034cc:	f421 7180 	bic.w	r1, r1, #256	@ 0x100
 80034d0:	60d1      	str	r1, [r2, #12]
 80034d2:	6951      	ldr	r1, [r2, #20]
 80034d4:	f021 0101 	bic.w	r1, r1, #1
 80034d8:	6151      	str	r1, [r2, #20]
 80034da:	2220      	movs	r2, #32
 80034dc:	f880 2042 	strb.w	r2, [r0, #66]	@ 0x42
 80034e0:	6343      	str	r3, [r0, #52]	@ 0x34
 80034e2:	6b02      	ldr	r2, [r0, #48]	@ 0x30
 80034e4:	2a01      	cmp	r2, #1
 80034e6:	6802      	ldr	r2, [r0, #0]
 80034e8:	d128      	bne.n	800353c <UART_Receive_IT.isra.0+0xb0>
 80034ea:	6303      	str	r3, [r0, #48]	@ 0x30
 80034ec:	f102 030c 	add.w	r3, r2, #12
 80034f0:	e853 3f00 	ldrex	r3, [r3]
 80034f4:	f023 0310 	bic.w	r3, r3, #16
 80034f8:	f102 0c0c 	add.w	ip, r2, #12
 80034fc:	e84c 3100 	strex	r1, r3, [ip]
 8003500:	2900      	cmp	r1, #0
 8003502:	d1f3      	bne.n	80034ec <UART_Receive_IT.isra.0+0x60>
 8003504:	6813      	ldr	r3, [r2, #0]
 8003506:	06db      	lsls	r3, r3, #27
 8003508:	d505      	bpl.n	8003516 <UART_Receive_IT.isra.0+0x8a>
 800350a:	9101      	str	r1, [sp, #4]
 800350c:	6813      	ldr	r3, [r2, #0]
 800350e:	9301      	str	r3, [sp, #4]
 8003510:	6853      	ldr	r3, [r2, #4]
 8003512:	9301      	str	r3, [sp, #4]
 8003514:	9b01      	ldr	r3, [sp, #4]
 8003516:	8d81      	ldrh	r1, [r0, #44]	@ 0x2c
 8003518:	f7ff ffb7 	bl	800348a <HAL_UARTEx_RxEventCallback>
 800351c:	b003      	add	sp, #12
 800351e:	f85d fb04 	ldr.w	pc, [sp], #4
 8003522:	b939      	cbnz	r1, 8003534 <UART_Receive_IT.isra.0+0xa8>
 8003524:	6901      	ldr	r1, [r0, #16]
 8003526:	b929      	cbnz	r1, 8003534 <UART_Receive_IT.isra.0+0xa8>
 8003528:	6852      	ldr	r2, [r2, #4]
 800352a:	b2d2      	uxtb	r2, r2
 800352c:	701a      	strb	r2, [r3, #0]
 800352e:	6a83      	ldr	r3, [r0, #40]	@ 0x28
 8003530:	3301      	adds	r3, #1
 8003532:	e7be      	b.n	80034b2 <UART_Receive_IT.isra.0+0x26>
 8003534:	6852      	ldr	r2, [r2, #4]
 8003536:	f002 027f 	and.w	r2, r2, #127	@ 0x7f
 800353a:	e7f7      	b.n	800352c <UART_Receive_IT.isra.0+0xa0>
 800353c:	f7fd f820 	bl	8000580 <HAL_UART_RxCpltCallback>
 8003540:	e7ec      	b.n	800351c <UART_Receive_IT.isra.0+0x90>
	...

08003544 <HAL_UART_IRQHandler>:
 8003544:	6803      	ldr	r3, [r0, #0]
 8003546:	681a      	ldr	r2, [r3, #0]
 8003548:	b573      	push	{r0, r1, r4, r5, r6, lr}
 800354a:	0716      	lsls	r6, r2, #28
 800354c:	68d9      	ldr	r1, [r3, #12]
 800354e:	695d      	ldr	r5, [r3, #20]
 8003550:	4604      	mov	r4, r0
 8003552:	d108      	bne.n	8003566 <HAL_UART_IRQHandler+0x22>
 8003554:	0696      	lsls	r6, r2, #26
 8003556:	d568      	bpl.n	800362a <HAL_UART_IRQHandler+0xe6>
 8003558:	068d      	lsls	r5, r1, #26
 800355a:	d566      	bpl.n	800362a <HAL_UART_IRQHandler+0xe6>
 800355c:	b002      	add	sp, #8
 800355e:	e8bd 4070 	ldmia.w	sp!, {r4, r5, r6, lr}
 8003562:	f7ff bf93 	b.w	800348c <UART_Receive_IT.isra.0>
 8003566:	f005 0001 	and.w	r0, r5, #1
 800356a:	f401 7590 	and.w	r5, r1, #288	@ 0x120
 800356e:	4305      	orrs	r5, r0
 8003570:	d05b      	beq.n	800362a <HAL_UART_IRQHandler+0xe6>
 8003572:	07d6      	lsls	r6, r2, #31
 8003574:	d505      	bpl.n	8003582 <HAL_UART_IRQHandler+0x3e>
 8003576:	05cd      	lsls	r5, r1, #23
 8003578:	bf42      	ittt	mi
 800357a:	6c63      	ldrmi	r3, [r4, #68]	@ 0x44
 800357c:	f043 0301 	orrmi.w	r3, r3, #1
 8003580:	6463      	strmi	r3, [r4, #68]	@ 0x44
 8003582:	0753      	lsls	r3, r2, #29
 8003584:	d504      	bpl.n	8003590 <HAL_UART_IRQHandler+0x4c>
 8003586:	b118      	cbz	r0, 8003590 <HAL_UART_IRQHandler+0x4c>
 8003588:	6c63      	ldr	r3, [r4, #68]	@ 0x44
 800358a:	f043 0302 	orr.w	r3, r3, #2
 800358e:	6463      	str	r3, [r4, #68]	@ 0x44
 8003590:	0796      	lsls	r6, r2, #30
 8003592:	d504      	bpl.n	800359e <HAL_UART_IRQHandler+0x5a>
 8003594:	b118      	cbz	r0, 800359e <HAL_UART_IRQHandler+0x5a>
 8003596:	6c63      	ldr	r3, [r4, #68]	@ 0x44
 8003598:	f043 0304 	orr.w	r3, r3, #4
 800359c:	6463      	str	r3, [r4, #68]	@ 0x44
 800359e:	0715      	lsls	r5, r2, #28
 80035a0:	d507      	bpl.n	80035b2 <HAL_UART_IRQHandler+0x6e>
 80035a2:	f001 0320 	and.w	r3, r1, #32
 80035a6:	4303      	orrs	r3, r0
 80035a8:	bf1e      	ittt	ne
 80035aa:	6c63      	ldrne	r3, [r4, #68]	@ 0x44
 80035ac:	f043 0308 	orrne.w	r3, r3, #8
 80035b0:	6463      	strne	r3, [r4, #68]	@ 0x44
 80035b2:	6c63      	ldr	r3, [r4, #68]	@ 0x44
 80035b4:	2b00      	cmp	r3, #0
 80035b6:	d032      	beq.n	800361e <HAL_UART_IRQHandler+0xda>
 80035b8:	0692      	lsls	r2, r2, #26
 80035ba:	d504      	bpl.n	80035c6 <HAL_UART_IRQHandler+0x82>
 80035bc:	068b      	lsls	r3, r1, #26
 80035be:	d502      	bpl.n	80035c6 <HAL_UART_IRQHandler+0x82>
 80035c0:	4620      	mov	r0, r4
 80035c2:	f7ff ff63 	bl	800348c <UART_Receive_IT.isra.0>
 80035c6:	6826      	ldr	r6, [r4, #0]
 80035c8:	6973      	ldr	r3, [r6, #20]
 80035ca:	6c62      	ldr	r2, [r4, #68]	@ 0x44
 80035cc:	f003 0340 	and.w	r3, r3, #64	@ 0x40
 80035d0:	f002 0208 	and.w	r2, r2, #8
 80035d4:	ea53 0502 	orrs.w	r5, r3, r2
 80035d8:	4620      	mov	r0, r4
 80035da:	d022      	beq.n	8003622 <HAL_UART_IRQHandler+0xde>
 80035dc:	f7ff fe90 	bl	8003300 <UART_EndRxTransfer>
 80035e0:	6973      	ldr	r3, [r6, #20]
 80035e2:	065e      	lsls	r6, r3, #25
 80035e4:	d518      	bpl.n	8003618 <HAL_UART_IRQHandler+0xd4>
 80035e6:	6822      	ldr	r2, [r4, #0]
 80035e8:	f102 0314 	add.w	r3, r2, #20
 80035ec:	e853 3f00 	ldrex	r3, [r3]
 80035f0:	f023 0340 	bic.w	r3, r3, #64	@ 0x40
 80035f4:	3214      	adds	r2, #20
 80035f6:	e842 3100 	strex	r1, r3, [r2]
 80035fa:	2900      	cmp	r1, #0
 80035fc:	d1f3      	bne.n	80035e6 <HAL_UART_IRQHandler+0xa2>
 80035fe:	6be0      	ldr	r0, [r4, #60]	@ 0x3c
 8003600:	b150      	cbz	r0, 8003618 <HAL_UART_IRQHandler+0xd4>
 8003602:	4b74      	ldr	r3, [pc, #464]	@ (80037d4 <HAL_UART_IRQHandler+0x290>)
 8003604:	6503      	str	r3, [r0, #80]	@ 0x50
 8003606:	f7fe fb51 	bl	8001cac <HAL_DMA_Abort_IT>
 800360a:	b140      	cbz	r0, 800361e <HAL_UART_IRQHandler+0xda>
 800360c:	6be0      	ldr	r0, [r4, #60]	@ 0x3c
 800360e:	6d03      	ldr	r3, [r0, #80]	@ 0x50
 8003610:	b002      	add	sp, #8
 8003612:	e8bd 4070 	ldmia.w	sp!, {r4, r5, r6, lr}
 8003616:	4718      	bx	r3
 8003618:	4620      	mov	r0, r4
 800361a:	f7ff ff2d 	bl	8003478 <HAL_UART_ErrorCallback>
 800361e:	b002      	add	sp, #8
 8003620:	bd70      	pop	{r4, r5, r6, pc}
 8003622:	f7ff ff29 	bl	8003478 <HAL_UART_ErrorCallback>
 8003626:	6465      	str	r5, [r4, #68]	@ 0x44
 8003628:	e7f9      	b.n	800361e <HAL_UART_IRQHandler+0xda>
 800362a:	6b20      	ldr	r0, [r4, #48]	@ 0x30
 800362c:	2801      	cmp	r0, #1
 800362e:	f040 8095 	bne.w	800375c <HAL_UART_IRQHandler+0x218>
 8003632:	06d5      	lsls	r5, r2, #27
 8003634:	f140 8092 	bpl.w	800375c <HAL_UART_IRQHandler+0x218>
 8003638:	06c8      	lsls	r0, r1, #27
 800363a:	f140 808f 	bpl.w	800375c <HAL_UART_IRQHandler+0x218>
 800363e:	2200      	movs	r2, #0
 8003640:	9201      	str	r2, [sp, #4]
 8003642:	681a      	ldr	r2, [r3, #0]
 8003644:	9201      	str	r2, [sp, #4]
 8003646:	685a      	ldr	r2, [r3, #4]
 8003648:	9201      	str	r2, [sp, #4]
 800364a:	9a01      	ldr	r2, [sp, #4]
 800364c:	695a      	ldr	r2, [r3, #20]
 800364e:	0652      	lsls	r2, r2, #25
 8003650:	d54e      	bpl.n	80036f0 <HAL_UART_IRQHandler+0x1ac>
 8003652:	6be1      	ldr	r1, [r4, #60]	@ 0x3c
 8003654:	680a      	ldr	r2, [r1, #0]
 8003656:	6852      	ldr	r2, [r2, #4]
 8003658:	b292      	uxth	r2, r2
 800365a:	2a00      	cmp	r2, #0
 800365c:	d0df      	beq.n	800361e <HAL_UART_IRQHandler+0xda>
 800365e:	8da0      	ldrh	r0, [r4, #44]	@ 0x2c
 8003660:	4290      	cmp	r0, r2
 8003662:	d9dc      	bls.n	800361e <HAL_UART_IRQHandler+0xda>
 8003664:	85e2      	strh	r2, [r4, #46]	@ 0x2e
 8003666:	69ca      	ldr	r2, [r1, #28]
 8003668:	f5b2 7f80 	cmp.w	r2, #256	@ 0x100
 800366c:	d036      	beq.n	80036dc <HAL_UART_IRQHandler+0x198>
 800366e:	f103 020c 	add.w	r2, r3, #12
 8003672:	e852 2f00 	ldrex	r2, [r2]
 8003676:	f422 7280 	bic.w	r2, r2, #256	@ 0x100
 800367a:	f103 000c 	add.w	r0, r3, #12
 800367e:	e840 2100 	strex	r1, r2, [r0]
 8003682:	2900      	cmp	r1, #0
 8003684:	d1f3      	bne.n	800366e <HAL_UART_IRQHandler+0x12a>
 8003686:	f103 0214 	add.w	r2, r3, #20
 800368a:	e852 2f00 	ldrex	r2, [r2]
 800368e:	f022 0201 	bic.w	r2, r2, #1
 8003692:	f103 0014 	add.w	r0, r3, #20
 8003696:	e840 2100 	strex	r1, r2, [r0]
 800369a:	2900      	cmp	r1, #0
 800369c:	d1f3      	bne.n	8003686 <HAL_UART_IRQHandler+0x142>
 800369e:	f103 0214 	add.w	r2, r3, #20
 80036a2:	e852 2f00 	ldrex	r2, [r2]
 80036a6:	f022 0240 	bic.w	r2, r2, #64	@ 0x40
 80036aa:	f103 0014 	add.w	r0, r3, #20
 80036ae:	e840 2100 	strex	r1, r2, [r0]
 80036b2:	2900      	cmp	r1, #0
 80036b4:	d1f3      	bne.n	800369e <HAL_UART_IRQHandler+0x15a>
 80036b6:	2220      	movs	r2, #32
 80036b8:	f884 2042 	strb.w	r2, [r4, #66]	@ 0x42
 80036bc:	6321      	str	r1, [r4, #48]	@ 0x30
 80036be:	f103 020c 	add.w	r2, r3, #12
 80036c2:	e852 2f00 	ldrex	r2, [r2]
 80036c6:	f022 0210 	bic.w	r2, r2, #16
 80036ca:	f103 000c 	add.w	r0, r3, #12
 80036ce:	e840 2100 	strex	r1, r2, [r0]
 80036d2:	2900      	cmp	r1, #0
 80036d4:	d1f3      	bne.n	80036be <HAL_UART_IRQHandler+0x17a>
 80036d6:	6be0      	ldr	r0, [r4, #60]	@ 0x3c
 80036d8:	f7fe faaa 	bl	8001c30 <HAL_DMA_Abort>
 80036dc:	2302      	movs	r3, #2
 80036de:	6363      	str	r3, [r4, #52]	@ 0x34
 80036e0:	8de3      	ldrh	r3, [r4, #46]	@ 0x2e
 80036e2:	8da1      	ldrh	r1, [r4, #44]	@ 0x2c
 80036e4:	1ac9      	subs	r1, r1, r3
 80036e6:	b289      	uxth	r1, r1
 80036e8:	4620      	mov	r0, r4
 80036ea:	f7ff fece 	bl	800348a <HAL_UARTEx_RxEventCallback>
 80036ee:	e796      	b.n	800361e <HAL_UART_IRQHandler+0xda>
 80036f0:	8de2      	ldrh	r2, [r4, #46]	@ 0x2e
 80036f2:	8de0      	ldrh	r0, [r4, #46]	@ 0x2e
 80036f4:	8da1      	ldrh	r1, [r4, #44]	@ 0x2c
 80036f6:	b280      	uxth	r0, r0
 80036f8:	b292      	uxth	r2, r2
 80036fa:	2800      	cmp	r0, #0
 80036fc:	d08f      	beq.n	800361e <HAL_UART_IRQHandler+0xda>
 80036fe:	1a89      	subs	r1, r1, r2
 8003700:	b289      	uxth	r1, r1
 8003702:	2900      	cmp	r1, #0
 8003704:	d08b      	beq.n	800361e <HAL_UART_IRQHandler+0xda>
 8003706:	f103 020c 	add.w	r2, r3, #12
 800370a:	e852 2f00 	ldrex	r2, [r2]
 800370e:	f422 7290 	bic.w	r2, r2, #288	@ 0x120
 8003712:	f103 050c 	add.w	r5, r3, #12
 8003716:	e845 2000 	strex	r0, r2, [r5]
 800371a:	2800      	cmp	r0, #0
 800371c:	d1f3      	bne.n	8003706 <HAL_UART_IRQHandler+0x1c2>
 800371e:	f103 0214 	add.w	r2, r3, #20
 8003722:	e852 2f00 	ldrex	r2, [r2]
 8003726:	f022 0201 	bic.w	r2, r2, #1
 800372a:	f103 0514 	add.w	r5, r3, #20
 800372e:	e845 2000 	strex	r0, r2, [r5]
 8003732:	2800      	cmp	r0, #0
 8003734:	d1f3      	bne.n	800371e <HAL_UART_IRQHandler+0x1da>
 8003736:	2220      	movs	r2, #32
 8003738:	f884 2042 	strb.w	r2, [r4, #66]	@ 0x42
 800373c:	6320      	str	r0, [r4, #48]	@ 0x30
 800373e:	f103 020c 	add.w	r2, r3, #12
 8003742:	e852 2f00 	ldrex	r2, [r2]
 8003746:	f022 0210 	bic.w	r2, r2, #16
 800374a:	f103 050c 	add.w	r5, r3, #12
 800374e:	e845 2000 	strex	r0, r2, [r5]
 8003752:	2800      	cmp	r0, #0
 8003754:	d1f3      	bne.n	800373e <HAL_UART_IRQHandler+0x1fa>
 8003756:	2302      	movs	r3, #2
 8003758:	6363      	str	r3, [r4, #52]	@ 0x34
 800375a:	e7c5      	b.n	80036e8 <HAL_UART_IRQHandler+0x1a4>
 800375c:	0616      	lsls	r6, r2, #24
 800375e:	d528      	bpl.n	80037b2 <HAL_UART_IRQHandler+0x26e>
 8003760:	060d      	lsls	r5, r1, #24
 8003762:	d526      	bpl.n	80037b2 <HAL_UART_IRQHandler+0x26e>
 8003764:	f894 2041 	ldrb.w	r2, [r4, #65]	@ 0x41
 8003768:	2a21      	cmp	r2, #33	@ 0x21
 800376a:	f47f af58 	bne.w	800361e <HAL_UART_IRQHandler+0xda>
 800376e:	68a1      	ldr	r1, [r4, #8]
 8003770:	6a22      	ldr	r2, [r4, #32]
 8003772:	f5b1 5f80 	cmp.w	r1, #4096	@ 0x1000
 8003776:	d117      	bne.n	80037a8 <HAL_UART_IRQHandler+0x264>
 8003778:	6921      	ldr	r1, [r4, #16]
 800377a:	b9a9      	cbnz	r1, 80037a8 <HAL_UART_IRQHandler+0x264>
 800377c:	f832 1b02 	ldrh.w	r1, [r2], #2
 8003780:	f3c1 0108 	ubfx	r1, r1, #0, #9
 8003784:	6059      	str	r1, [r3, #4]
 8003786:	6222      	str	r2, [r4, #32]
 8003788:	8ce2      	ldrh	r2, [r4, #38]	@ 0x26
 800378a:	3a01      	subs	r2, #1
 800378c:	b292      	uxth	r2, r2
 800378e:	84e2      	strh	r2, [r4, #38]	@ 0x26
 8003790:	2a00      	cmp	r2, #0
 8003792:	f47f af44 	bne.w	800361e <HAL_UART_IRQHandler+0xda>
 8003796:	68da      	ldr	r2, [r3, #12]
 8003798:	f022 0280 	bic.w	r2, r2, #128	@ 0x80
 800379c:	60da      	str	r2, [r3, #12]
 800379e:	68da      	ldr	r2, [r3, #12]
 80037a0:	f042 0240 	orr.w	r2, r2, #64	@ 0x40
 80037a4:	60da      	str	r2, [r3, #12]
 80037a6:	e73a      	b.n	800361e <HAL_UART_IRQHandler+0xda>
 80037a8:	1c51      	adds	r1, r2, #1
 80037aa:	6221      	str	r1, [r4, #32]
 80037ac:	7812      	ldrb	r2, [r2, #0]
 80037ae:	605a      	str	r2, [r3, #4]
 80037b0:	e7ea      	b.n	8003788 <HAL_UART_IRQHandler+0x244>
 80037b2:	0650      	lsls	r0, r2, #25
 80037b4:	f57f af33 	bpl.w	800361e <HAL_UART_IRQHandler+0xda>
 80037b8:	064a      	lsls	r2, r1, #25
 80037ba:	f57f af30 	bpl.w	800361e <HAL_UART_IRQHandler+0xda>
 80037be:	68da      	ldr	r2, [r3, #12]
 80037c0:	f022 0240 	bic.w	r2, r2, #64	@ 0x40
 80037c4:	60da      	str	r2, [r3, #12]
 80037c6:	2320      	movs	r3, #32
 80037c8:	f884 3041 	strb.w	r3, [r4, #65]	@ 0x41
 80037cc:	4620      	mov	r0, r4
 80037ce:	f7ff fe52 	bl	8003476 <HAL_UART_TxCpltCallback>
 80037d2:	e724      	b.n	800361e <HAL_UART_IRQHandler+0xda>
 80037d4:	0800347b 	.word	0x0800347b

080037d8 <UART_Start_Receive_IT>:
 80037d8:	85c2      	strh	r2, [r0, #46]	@ 0x2e
 80037da:	2300      	movs	r3, #0
 80037dc:	8582      	strh	r2, [r0, #44]	@ 0x2c
 80037de:	6902      	ldr	r2, [r0, #16]
 80037e0:	6443      	str	r3, [r0, #68]	@ 0x44
 80037e2:	2322      	movs	r3, #34	@ 0x22
 80037e4:	f880 3042 	strb.w	r3, [r0, #66]	@ 0x42
 80037e8:	6281      	str	r1, [r0, #40]	@ 0x28
 80037ea:	6803      	ldr	r3, [r0, #0]
 80037ec:	b11a      	cbz	r2, 80037f6 <UART_Start_Receive_IT+0x1e>
 80037ee:	68da      	ldr	r2, [r3, #12]
 80037f0:	f442 7280 	orr.w	r2, r2, #256	@ 0x100
 80037f4:	60da      	str	r2, [r3, #12]
 80037f6:	695a      	ldr	r2, [r3, #20]
 80037f8:	f042 0201 	orr.w	r2, r2, #1
 80037fc:	615a      	str	r2, [r3, #20]
 80037fe:	68da      	ldr	r2, [r3, #12]
 8003800:	f042 0220 	orr.w	r2, r2, #32
 8003804:	60da      	str	r2, [r3, #12]
 8003806:	2000      	movs	r0, #0
 8003808:	4770      	bx	lr

0800380a <HAL_UART_Receive_IT>:
 800380a:	b470      	push	{r4, r5, r6}
 800380c:	f890 6042 	ldrb.w	r6, [r0, #66]	@ 0x42
 8003810:	2e20      	cmp	r6, #32
 8003812:	d106      	bne.n	8003822 <HAL_UART_Receive_IT+0x18>
 8003814:	b141      	cbz	r1, 8003828 <HAL_UART_Receive_IT+0x1e>
 8003816:	b13a      	cbz	r2, 8003828 <HAL_UART_Receive_IT+0x1e>
 8003818:	2400      	movs	r4, #0
 800381a:	6304      	str	r4, [r0, #48]	@ 0x30
 800381c:	bc70      	pop	{r4, r5, r6}
 800381e:	f7ff bfdb 	b.w	80037d8 <UART_Start_Receive_IT>
 8003822:	2002      	movs	r0, #2
 8003824:	bc70      	pop	{r4, r5, r6}
 8003826:	4770      	bx	lr
 8003828:	2001      	movs	r0, #1
 800382a:	e7fb      	b.n	8003824 <HAL_UART_Receive_IT+0x1a>

0800382c <MX_FATFS_Init>:
 800382c:	b508      	push	{r3, lr}
 800382e:	4903      	ldr	r1, [pc, #12]	@ (800383c <MX_FATFS_Init+0x10>)
 8003830:	4803      	ldr	r0, [pc, #12]	@ (8003840 <MX_FATFS_Init+0x14>)
 8003832:	f001 fcef 	bl	8005214 <FATFS_LinkDriver>
 8003836:	4b03      	ldr	r3, [pc, #12]	@ (8003844 <MX_FATFS_Init+0x18>)
 8003838:	7018      	strb	r0, [r3, #0]
 800383a:	bd08      	pop	{r3, pc}
 800383c:	20002384 	.word	0x20002384
 8003840:	20000010 	.word	0x20000010
 8003844:	20002388 	.word	0x20002388

08003848 <get_fattime>:
 8003848:	2000      	movs	r0, #0
 800384a:	4770      	bx	lr

0800384c <USER_initialize>:
 800384c:	f7fd b868 	b.w	8000920 <SD_disk_initialize>

08003850 <USER_status>:
 8003850:	f7fd b916 	b.w	8000a80 <SD_disk_status>

08003854 <USER_read>:
 8003854:	f7fd b91e 	b.w	8000a94 <SD_disk_read>

08003858 <USER_write>:
 8003858:	f7fd b962 	b.w	8000b20 <SD_disk_write>

0800385c <USER_ioctl>:
 800385c:	f7fd b9b8 	b.w	8000bd0 <SD_disk_ioctl>

08003860 <disk_status>:
 8003860:	4b03      	ldr	r3, [pc, #12]	@ (8003870 <disk_status+0x10>)
 8003862:	181a      	adds	r2, r3, r0
 8003864:	eb03 0380 	add.w	r3, r3, r0, lsl #2
 8003868:	7a10      	ldrb	r0, [r2, #8]
 800386a:	685b      	ldr	r3, [r3, #4]
 800386c:	685b      	ldr	r3, [r3, #4]
 800386e:	4718      	bx	r3
 8003870:	200025b4 	.word	0x200025b4

08003874 <disk_initialize>:
 8003874:	b538      	push	{r3, r4, r5, lr}
 8003876:	4d08      	ldr	r5, [pc, #32]	@ (8003898 <disk_initialize+0x24>)
 8003878:	5c2b      	ldrb	r3, [r5, r0]
 800387a:	4604      	mov	r4, r0
 800387c:	b94b      	cbnz	r3, 8003892 <disk_initialize+0x1e>
 800387e:	eb05 0280 	add.w	r2, r5, r0, lsl #2
 8003882:	182b      	adds	r3, r5, r0
 8003884:	6852      	ldr	r2, [r2, #4]
 8003886:	7a18      	ldrb	r0, [r3, #8]
 8003888:	6812      	ldr	r2, [r2, #0]
 800388a:	4790      	blx	r2
 800388c:	b910      	cbnz	r0, 8003894 <disk_initialize+0x20>
 800388e:	2301      	movs	r3, #1
 8003890:	552b      	strb	r3, [r5, r4]
 8003892:	2000      	movs	r0, #0
 8003894:	bd38      	pop	{r3, r4, r5, pc}
 8003896:	bf00      	nop
 8003898:	200025b4 	.word	0x200025b4

0800389c <disk_read>:
 800389c:	b430      	push	{r4, r5}
 800389e:	4c05      	ldr	r4, [pc, #20]	@ (80038b4 <disk_read+0x18>)
 80038a0:	1825      	adds	r5, r4, r0
 80038a2:	eb04 0480 	add.w	r4, r4, r0, lsl #2
 80038a6:	6860      	ldr	r0, [r4, #4]
 80038a8:	6884      	ldr	r4, [r0, #8]
 80038aa:	7a28      	ldrb	r0, [r5, #8]
 80038ac:	46a4      	mov	ip, r4
 80038ae:	bc30      	pop	{r4, r5}
 80038b0:	4760      	bx	ip
 80038b2:	bf00      	nop
 80038b4:	200025b4 	.word	0x200025b4

080038b8 <disk_write>:
 80038b8:	b430      	push	{r4, r5}
 80038ba:	4c05      	ldr	r4, [pc, #20]	@ (80038d0 <disk_write+0x18>)
 80038bc:	1825      	adds	r5, r4, r0
 80038be:	eb04 0480 	add.w	r4, r4, r0, lsl #2
 80038c2:	6860      	ldr	r0, [r4, #4]
 80038c4:	68c4      	ldr	r4, [r0, #12]
 80038c6:	7a28      	ldrb	r0, [r5, #8]
 80038c8:	46a4      	mov	ip, r4
 80038ca:	bc30      	pop	{r4, r5}
 80038cc:	4760      	bx	ip
 80038ce:	bf00      	nop
 80038d0:	200025b4 	.word	0x200025b4

080038d4 <disk_ioctl>:
 80038d4:	4b05      	ldr	r3, [pc, #20]	@ (80038ec <disk_ioctl+0x18>)
 80038d6:	b410      	push	{r4}
 80038d8:	181c      	adds	r4, r3, r0
 80038da:	eb03 0380 	add.w	r3, r3, r0, lsl #2
 80038de:	7a20      	ldrb	r0, [r4, #8]
 80038e0:	685b      	ldr	r3, [r3, #4]
 80038e2:	f85d 4b04 	ldr.w	r4, [sp], #4
 80038e6:	691b      	ldr	r3, [r3, #16]
 80038e8:	4718      	bx	r3
 80038ea:	bf00      	nop
 80038ec:	200025b4 	.word	0x200025b4

080038f0 <ld_dword>:
 80038f0:	6800      	ldr	r0, [r0, #0]
 80038f2:	4770      	bx	lr

080038f4 <st_dword>:
 80038f4:	0a0b      	lsrs	r3, r1, #8
 80038f6:	7001      	strb	r1, [r0, #0]
 80038f8:	7043      	strb	r3, [r0, #1]
 80038fa:	0c0b      	lsrs	r3, r1, #16
 80038fc:	0e09      	lsrs	r1, r1, #24
 80038fe:	7083      	strb	r3, [r0, #2]
 8003900:	70c1      	strb	r1, [r0, #3]
 8003902:	4770      	bx	lr

08003904 <mem_set>:
 8003904:	4402      	add	r2, r0
 8003906:	f800 1b01 	strb.w	r1, [r0], #1
 800390a:	4290      	cmp	r0, r2
 800390c:	d1fb      	bne.n	8003906 <mem_set+0x2>
 800390e:	4770      	bx	lr

08003910 <chk_lock>:
 8003910:	4b1b      	ldr	r3, [pc, #108]	@ (8003980 <chk_lock+0x70>)
 8003912:	4602      	mov	r2, r0
 8003914:	6818      	ldr	r0, [r3, #0]
 8003916:	b530      	push	{r4, r5, lr}
 8003918:	b160      	cbz	r0, 8003934 <chk_lock+0x24>
 800391a:	6814      	ldr	r4, [r2, #0]
 800391c:	42a0      	cmp	r0, r4
 800391e:	d107      	bne.n	8003930 <chk_lock+0x20>
 8003920:	685c      	ldr	r4, [r3, #4]
 8003922:	6890      	ldr	r0, [r2, #8]
 8003924:	4284      	cmp	r4, r0
 8003926:	d103      	bne.n	8003930 <chk_lock+0x20>
 8003928:	689c      	ldr	r4, [r3, #8]
 800392a:	6950      	ldr	r0, [r2, #20]
 800392c:	4284      	cmp	r4, r0
 800392e:	d012      	beq.n	8003956 <chk_lock+0x46>
 8003930:	2400      	movs	r4, #0
 8003932:	e000      	b.n	8003936 <chk_lock+0x26>
 8003934:	2401      	movs	r4, #1
 8003936:	6918      	ldr	r0, [r3, #16]
 8003938:	b1b8      	cbz	r0, 800396a <chk_lock+0x5a>
 800393a:	6815      	ldr	r5, [r2, #0]
 800393c:	42a8      	cmp	r0, r5
 800393e:	d107      	bne.n	8003950 <chk_lock+0x40>
 8003940:	695d      	ldr	r5, [r3, #20]
 8003942:	6890      	ldr	r0, [r2, #8]
 8003944:	4285      	cmp	r5, r0
 8003946:	d103      	bne.n	8003950 <chk_lock+0x40>
 8003948:	6998      	ldr	r0, [r3, #24]
 800394a:	6952      	ldr	r2, [r2, #20]
 800394c:	4290      	cmp	r0, r2
 800394e:	d006      	beq.n	800395e <chk_lock+0x4e>
 8003950:	b13c      	cbz	r4, 8003962 <chk_lock+0x52>
 8003952:	2000      	movs	r0, #0
 8003954:	e009      	b.n	800396a <chk_lock+0x5a>
 8003956:	2200      	movs	r2, #0
 8003958:	b141      	cbz	r1, 800396c <chk_lock+0x5c>
 800395a:	2010      	movs	r0, #16
 800395c:	e005      	b.n	800396a <chk_lock+0x5a>
 800395e:	2201      	movs	r2, #1
 8003960:	e7fa      	b.n	8003958 <chk_lock+0x48>
 8003962:	2902      	cmp	r1, #2
 8003964:	bf14      	ite	ne
 8003966:	2012      	movne	r0, #18
 8003968:	2000      	moveq	r0, #0
 800396a:	bd30      	pop	{r4, r5, pc}
 800396c:	eb03 1302 	add.w	r3, r3, r2, lsl #4
 8003970:	8998      	ldrh	r0, [r3, #12]
 8003972:	f5a0 7380 	sub.w	r3, r0, #256	@ 0x100
 8003976:	4258      	negs	r0, r3
 8003978:	4158      	adcs	r0, r3
 800397a:	0100      	lsls	r0, r0, #4
 800397c:	e7f5      	b.n	800396a <chk_lock+0x5a>
 800397e:	bf00      	nop
 8003980:	2000258c 	.word	0x2000258c

08003984 <inc_lock>:
 8003984:	4a1f      	ldr	r2, [pc, #124]	@ (8003a04 <inc_lock+0x80>)
 8003986:	b5f0      	push	{r4, r5, r6, r7, lr}
 8003988:	6813      	ldr	r3, [r2, #0]
 800398a:	6806      	ldr	r6, [r0, #0]
 800398c:	429e      	cmp	r6, r3
 800398e:	d107      	bne.n	80039a0 <inc_lock+0x1c>
 8003990:	6885      	ldr	r5, [r0, #8]
 8003992:	6854      	ldr	r4, [r2, #4]
 8003994:	42a5      	cmp	r5, r4
 8003996:	d103      	bne.n	80039a0 <inc_lock+0x1c>
 8003998:	6895      	ldr	r5, [r2, #8]
 800399a:	6944      	ldr	r4, [r0, #20]
 800399c:	42a5      	cmp	r5, r4
 800399e:	d019      	beq.n	80039d4 <inc_lock+0x50>
 80039a0:	6914      	ldr	r4, [r2, #16]
 80039a2:	42b4      	cmp	r4, r6
 80039a4:	d118      	bne.n	80039d8 <inc_lock+0x54>
 80039a6:	6957      	ldr	r7, [r2, #20]
 80039a8:	6885      	ldr	r5, [r0, #8]
 80039aa:	42af      	cmp	r7, r5
 80039ac:	d114      	bne.n	80039d8 <inc_lock+0x54>
 80039ae:	6997      	ldr	r7, [r2, #24]
 80039b0:	6945      	ldr	r5, [r0, #20]
 80039b2:	42af      	cmp	r7, r5
 80039b4:	d110      	bne.n	80039d8 <inc_lock+0x54>
 80039b6:	2301      	movs	r3, #1
 80039b8:	eb02 1003 	add.w	r0, r2, r3, lsl #4
 80039bc:	8980      	ldrh	r0, [r0, #12]
 80039be:	b9e9      	cbnz	r1, 80039fc <inc_lock+0x78>
 80039c0:	eb02 1103 	add.w	r1, r2, r3, lsl #4
 80039c4:	8989      	ldrh	r1, [r1, #12]
 80039c6:	3101      	adds	r1, #1
 80039c8:	b289      	uxth	r1, r1
 80039ca:	eb02 1203 	add.w	r2, r2, r3, lsl #4
 80039ce:	1c58      	adds	r0, r3, #1
 80039d0:	8191      	strh	r1, [r2, #12]
 80039d2:	bdf0      	pop	{r4, r5, r6, r7, pc}
 80039d4:	2300      	movs	r3, #0
 80039d6:	e7ef      	b.n	80039b8 <inc_lock+0x34>
 80039d8:	b10b      	cbz	r3, 80039de <inc_lock+0x5a>
 80039da:	b98c      	cbnz	r4, 8003a00 <inc_lock+0x7c>
 80039dc:	2301      	movs	r3, #1
 80039de:	011d      	lsls	r5, r3, #4
 80039e0:	eb02 1403 	add.w	r4, r2, r3, lsl #4
 80039e4:	5156      	str	r6, [r2, r5]
 80039e6:	6885      	ldr	r5, [r0, #8]
 80039e8:	6940      	ldr	r0, [r0, #20]
 80039ea:	60a0      	str	r0, [r4, #8]
 80039ec:	2000      	movs	r0, #0
 80039ee:	6065      	str	r5, [r4, #4]
 80039f0:	81a0      	strh	r0, [r4, #12]
 80039f2:	2900      	cmp	r1, #0
 80039f4:	d0e4      	beq.n	80039c0 <inc_lock+0x3c>
 80039f6:	f44f 7180 	mov.w	r1, #256	@ 0x100
 80039fa:	e7e6      	b.n	80039ca <inc_lock+0x46>
 80039fc:	2800      	cmp	r0, #0
 80039fe:	d0fa      	beq.n	80039f6 <inc_lock+0x72>
 8003a00:	2000      	movs	r0, #0
 8003a02:	e7e6      	b.n	80039d2 <inc_lock+0x4e>
 8003a04:	2000258c 	.word	0x2000258c

08003a08 <dec_lock>:
 8003a08:	3801      	subs	r0, #1
 8003a0a:	2801      	cmp	r0, #1
 8003a0c:	d815      	bhi.n	8003a3a <dec_lock+0x32>
 8003a0e:	4a0c      	ldr	r2, [pc, #48]	@ (8003a40 <dec_lock+0x38>)
 8003a10:	0101      	lsls	r1, r0, #4
 8003a12:	eb02 1000 	add.w	r0, r2, r0, lsl #4
 8003a16:	8983      	ldrh	r3, [r0, #12]
 8003a18:	f5b3 7f80 	cmp.w	r3, #256	@ 0x100
 8003a1c:	d104      	bne.n	8003a28 <dec_lock+0x20>
 8003a1e:	2300      	movs	r3, #0
 8003a20:	8183      	strh	r3, [r0, #12]
 8003a22:	2300      	movs	r3, #0
 8003a24:	5053      	str	r3, [r2, r1]
 8003a26:	e006      	b.n	8003a36 <dec_lock+0x2e>
 8003a28:	2b00      	cmp	r3, #0
 8003a2a:	d0fa      	beq.n	8003a22 <dec_lock+0x1a>
 8003a2c:	3b01      	subs	r3, #1
 8003a2e:	b29b      	uxth	r3, r3
 8003a30:	8183      	strh	r3, [r0, #12]
 8003a32:	2b00      	cmp	r3, #0
 8003a34:	d0f5      	beq.n	8003a22 <dec_lock+0x1a>
 8003a36:	2000      	movs	r0, #0
 8003a38:	4770      	bx	lr
 8003a3a:	2002      	movs	r0, #2
 8003a3c:	4770      	bx	lr
 8003a3e:	bf00      	nop
 8003a40:	2000258c 	.word	0x2000258c

08003a44 <clear_lock>:
 8003a44:	4b05      	ldr	r3, [pc, #20]	@ (8003a5c <clear_lock+0x18>)
 8003a46:	681a      	ldr	r2, [r3, #0]
 8003a48:	4290      	cmp	r0, r2
 8003a4a:	bf04      	itt	eq
 8003a4c:	2200      	moveq	r2, #0
 8003a4e:	601a      	streq	r2, [r3, #0]
 8003a50:	691a      	ldr	r2, [r3, #16]
 8003a52:	4290      	cmp	r0, r2
 8003a54:	bf04      	itt	eq
 8003a56:	2200      	moveq	r2, #0
 8003a58:	611a      	streq	r2, [r3, #16]
 8003a5a:	4770      	bx	lr
 8003a5c:	2000258c 	.word	0x2000258c

08003a60 <clust2sect>:
 8003a60:	69c3      	ldr	r3, [r0, #28]
 8003a62:	3902      	subs	r1, #2
 8003a64:	3b02      	subs	r3, #2
 8003a66:	428b      	cmp	r3, r1
 8003a68:	bf83      	ittte	hi
 8003a6a:	8943      	ldrhhi	r3, [r0, #10]
 8003a6c:	6b00      	ldrhi	r0, [r0, #48]	@ 0x30
 8003a6e:	fb01 0003 	mlahi	r0, r1, r3, r0
 8003a72:	2000      	movls	r0, #0
 8003a74:	4770      	bx	lr

08003a76 <clmt_clust>:
 8003a76:	6ac3      	ldr	r3, [r0, #44]	@ 0x2c
 8003a78:	6802      	ldr	r2, [r0, #0]
 8003a7a:	3304      	adds	r3, #4
 8003a7c:	8990      	ldrh	r0, [r2, #12]
 8003a7e:	8952      	ldrh	r2, [r2, #10]
 8003a80:	fbb1 f1f0 	udiv	r1, r1, r0
 8003a84:	fbb1 f1f2 	udiv	r1, r1, r2
 8003a88:	6818      	ldr	r0, [r3, #0]
 8003a8a:	b130      	cbz	r0, 8003a9a <clmt_clust+0x24>
 8003a8c:	4281      	cmp	r1, r0
 8003a8e:	d302      	bcc.n	8003a96 <clmt_clust+0x20>
 8003a90:	1a09      	subs	r1, r1, r0
 8003a92:	3308      	adds	r3, #8
 8003a94:	e7f8      	b.n	8003a88 <clmt_clust+0x12>
 8003a96:	6858      	ldr	r0, [r3, #4]
 8003a98:	4408      	add	r0, r1
 8003a9a:	4770      	bx	lr

08003a9c <sum_sfn>:
 8003a9c:	4603      	mov	r3, r0
 8003a9e:	f100 010b 	add.w	r1, r0, #11
 8003aa2:	2000      	movs	r0, #0
 8003aa4:	01c2      	lsls	r2, r0, #7
 8003aa6:	ea42 0250 	orr.w	r2, r2, r0, lsr #1
 8003aaa:	f813 0b01 	ldrb.w	r0, [r3], #1
 8003aae:	fa50 f282 	uxtab	r2, r0, r2
 8003ab2:	428b      	cmp	r3, r1
 8003ab4:	b2d0      	uxtb	r0, r2
 8003ab6:	d1f5      	bne.n	8003aa4 <sum_sfn+0x8>
 8003ab8:	4770      	bx	lr

08003aba <get_ldnumber>:
 8003aba:	6803      	ldr	r3, [r0, #0]
 8003abc:	b510      	push	{r4, lr}
 8003abe:	b153      	cbz	r3, 8003ad6 <get_ldnumber+0x1c>
 8003ac0:	4619      	mov	r1, r3
 8003ac2:	460a      	mov	r2, r1
 8003ac4:	f811 4b01 	ldrb.w	r4, [r1], #1
 8003ac8:	2c1f      	cmp	r4, #31
 8003aca:	d90c      	bls.n	8003ae6 <get_ldnumber+0x2c>
 8003acc:	2c3a      	cmp	r4, #58	@ 0x3a
 8003ace:	d1f8      	bne.n	8003ac2 <get_ldnumber+0x8>
 8003ad0:	7819      	ldrb	r1, [r3, #0]
 8003ad2:	2930      	cmp	r1, #48	@ 0x30
 8003ad4:	d002      	beq.n	8003adc <get_ldnumber+0x22>
 8003ad6:	f04f 30ff 	mov.w	r0, #4294967295
 8003ada:	e005      	b.n	8003ae8 <get_ldnumber+0x2e>
 8003adc:	3301      	adds	r3, #1
 8003ade:	429a      	cmp	r2, r3
 8003ae0:	d1f9      	bne.n	8003ad6 <get_ldnumber+0x1c>
 8003ae2:	3201      	adds	r2, #1
 8003ae4:	6002      	str	r2, [r0, #0]
 8003ae6:	2000      	movs	r0, #0
 8003ae8:	bd10      	pop	{r4, pc}

08003aea <validate>:
 8003aea:	b538      	push	{r3, r4, r5, lr}
 8003aec:	460d      	mov	r5, r1
 8003aee:	4604      	mov	r4, r0
 8003af0:	b918      	cbnz	r0, 8003afa <validate+0x10>
 8003af2:	2009      	movs	r0, #9
 8003af4:	2300      	movs	r3, #0
 8003af6:	602b      	str	r3, [r5, #0]
 8003af8:	bd38      	pop	{r3, r4, r5, pc}
 8003afa:	6803      	ldr	r3, [r0, #0]
 8003afc:	2b00      	cmp	r3, #0
 8003afe:	d0f8      	beq.n	8003af2 <validate+0x8>
 8003b00:	781a      	ldrb	r2, [r3, #0]
 8003b02:	2a00      	cmp	r2, #0
 8003b04:	d0f5      	beq.n	8003af2 <validate+0x8>
 8003b06:	8881      	ldrh	r1, [r0, #4]
 8003b08:	88da      	ldrh	r2, [r3, #6]
 8003b0a:	4291      	cmp	r1, r2
 8003b0c:	d1f1      	bne.n	8003af2 <validate+0x8>
 8003b0e:	7858      	ldrb	r0, [r3, #1]
 8003b10:	f7ff fea6 	bl	8003860 <disk_status>
 8003b14:	f010 0001 	ands.w	r0, r0, #1
 8003b18:	d1eb      	bne.n	8003af2 <validate+0x8>
 8003b1a:	6823      	ldr	r3, [r4, #0]
 8003b1c:	e7eb      	b.n	8003af6 <validate+0xc>

08003b1e <sync_window>:
 8003b1e:	b5f8      	push	{r3, r4, r5, r6, r7, lr}
 8003b20:	78c3      	ldrb	r3, [r0, #3]
 8003b22:	4604      	mov	r4, r0
 8003b24:	b90b      	cbnz	r3, 8003b2a <sync_window+0xc>
 8003b26:	2000      	movs	r0, #0
 8003b28:	bdf8      	pop	{r3, r4, r5, r6, r7, pc}
 8003b2a:	6b45      	ldr	r5, [r0, #52]	@ 0x34
 8003b2c:	f100 0738 	add.w	r7, r0, #56	@ 0x38
 8003b30:	2301      	movs	r3, #1
 8003b32:	7840      	ldrb	r0, [r0, #1]
 8003b34:	462a      	mov	r2, r5
 8003b36:	4639      	mov	r1, r7
 8003b38:	f7ff febe 	bl	80038b8 <disk_write>
 8003b3c:	b990      	cbnz	r0, 8003b64 <sync_window+0x46>
 8003b3e:	6aa3      	ldr	r3, [r4, #40]	@ 0x28
 8003b40:	6a22      	ldr	r2, [r4, #32]
 8003b42:	70e0      	strb	r0, [r4, #3]
 8003b44:	1aeb      	subs	r3, r5, r3
 8003b46:	4293      	cmp	r3, r2
 8003b48:	d2ed      	bcs.n	8003b26 <sync_window+0x8>
 8003b4a:	78a6      	ldrb	r6, [r4, #2]
 8003b4c:	2e01      	cmp	r6, #1
 8003b4e:	d9ea      	bls.n	8003b26 <sync_window+0x8>
 8003b50:	6a23      	ldr	r3, [r4, #32]
 8003b52:	7860      	ldrb	r0, [r4, #1]
 8003b54:	441d      	add	r5, r3
 8003b56:	462a      	mov	r2, r5
 8003b58:	2301      	movs	r3, #1
 8003b5a:	4639      	mov	r1, r7
 8003b5c:	f7ff feac 	bl	80038b8 <disk_write>
 8003b60:	3e01      	subs	r6, #1
 8003b62:	e7f3      	b.n	8003b4c <sync_window+0x2e>
 8003b64:	2001      	movs	r0, #1
 8003b66:	e7df      	b.n	8003b28 <sync_window+0xa>

08003b68 <mem_cpy.part.0>:
 8003b68:	3801      	subs	r0, #1
 8003b6a:	440a      	add	r2, r1
 8003b6c:	f811 3b01 	ldrb.w	r3, [r1], #1
 8003b70:	f800 3f01 	strb.w	r3, [r0, #1]!
 8003b74:	4291      	cmp	r1, r2
 8003b76:	d1f9      	bne.n	8003b6c <mem_cpy.part.0+0x4>
 8003b78:	4770      	bx	lr

08003b7a <st_clust>:
 8003b7a:	f3c2 2307 	ubfx	r3, r2, #8, #8
 8003b7e:	768a      	strb	r2, [r1, #26]
 8003b80:	76cb      	strb	r3, [r1, #27]
 8003b82:	7803      	ldrb	r3, [r0, #0]
 8003b84:	2b03      	cmp	r3, #3
 8003b86:	bf01      	itttt	eq
 8003b88:	0c12      	lsreq	r2, r2, #16
 8003b8a:	750a      	strbeq	r2, [r1, #20]
 8003b8c:	0a12      	lsreq	r2, r2, #8
 8003b8e:	754a      	strbeq	r2, [r1, #21]
 8003b90:	4770      	bx	lr

08003b92 <move_window>:
 8003b92:	b538      	push	{r3, r4, r5, lr}
 8003b94:	6b43      	ldr	r3, [r0, #52]	@ 0x34
 8003b96:	428b      	cmp	r3, r1
 8003b98:	4605      	mov	r5, r0
 8003b9a:	460c      	mov	r4, r1
 8003b9c:	d010      	beq.n	8003bc0 <move_window+0x2e>
 8003b9e:	f7ff ffbe 	bl	8003b1e <sync_window>
 8003ba2:	b960      	cbnz	r0, 8003bbe <move_window+0x2c>
 8003ba4:	4622      	mov	r2, r4
 8003ba6:	7868      	ldrb	r0, [r5, #1]
 8003ba8:	2301      	movs	r3, #1
 8003baa:	f105 0138 	add.w	r1, r5, #56	@ 0x38
 8003bae:	f7ff fe75 	bl	800389c <disk_read>
 8003bb2:	2800      	cmp	r0, #0
 8003bb4:	bf1c      	itt	ne
 8003bb6:	f04f 34ff 	movne.w	r4, #4294967295
 8003bba:	2001      	movne	r0, #1
 8003bbc:	636c      	str	r4, [r5, #52]	@ 0x34
 8003bbe:	bd38      	pop	{r3, r4, r5, pc}
 8003bc0:	2000      	movs	r0, #0
 8003bc2:	e7fc      	b.n	8003bbe <move_window+0x2c>

08003bc4 <check_fs>:
 8003bc4:	2300      	movs	r3, #0
 8003bc6:	b510      	push	{r4, lr}
 8003bc8:	70c3      	strb	r3, [r0, #3]
 8003bca:	f04f 33ff 	mov.w	r3, #4294967295
 8003bce:	6343      	str	r3, [r0, #52]	@ 0x34
 8003bd0:	4604      	mov	r4, r0
 8003bd2:	f7ff ffde 	bl	8003b92 <move_window>
 8003bd6:	4603      	mov	r3, r0
 8003bd8:	bb18      	cbnz	r0, 8003c22 <check_fs+0x5e>
 8003bda:	f8b4 1236 	ldrh.w	r1, [r4, #566]	@ 0x236
 8003bde:	f64a 2255 	movw	r2, #43605	@ 0xaa55
 8003be2:	4291      	cmp	r1, r2
 8003be4:	d11f      	bne.n	8003c26 <check_fs+0x62>
 8003be6:	f894 2038 	ldrb.w	r2, [r4, #56]	@ 0x38
 8003bea:	2ae9      	cmp	r2, #233	@ 0xe9
 8003bec:	d005      	beq.n	8003bfa <check_fs+0x36>
 8003bee:	6ba2      	ldr	r2, [r4, #56]	@ 0x38
 8003bf0:	490f      	ldr	r1, [pc, #60]	@ (8003c30 <check_fs+0x6c>)
 8003bf2:	f002 12ff 	and.w	r2, r2, #16711935	@ 0xff00ff
 8003bf6:	428a      	cmp	r2, r1
 8003bf8:	d117      	bne.n	8003c2a <check_fs+0x66>
 8003bfa:	f104 006e 	add.w	r0, r4, #110	@ 0x6e
 8003bfe:	f7ff fe77 	bl	80038f0 <ld_dword>
 8003c02:	4a0c      	ldr	r2, [pc, #48]	@ (8003c34 <check_fs+0x70>)
 8003c04:	f020 407f 	bic.w	r0, r0, #4278190080	@ 0xff000000
 8003c08:	4290      	cmp	r0, r2
 8003c0a:	d008      	beq.n	8003c1e <check_fs+0x5a>
 8003c0c:	f104 008a 	add.w	r0, r4, #138	@ 0x8a
 8003c10:	f7ff fe6e 	bl	80038f0 <ld_dword>
 8003c14:	4b08      	ldr	r3, [pc, #32]	@ (8003c38 <check_fs+0x74>)
 8003c16:	1ac3      	subs	r3, r0, r3
 8003c18:	bf18      	it	ne
 8003c1a:	2301      	movne	r3, #1
 8003c1c:	005b      	lsls	r3, r3, #1
 8003c1e:	4618      	mov	r0, r3
 8003c20:	bd10      	pop	{r4, pc}
 8003c22:	2304      	movs	r3, #4
 8003c24:	e7fb      	b.n	8003c1e <check_fs+0x5a>
 8003c26:	2303      	movs	r3, #3
 8003c28:	e7f9      	b.n	8003c1e <check_fs+0x5a>
 8003c2a:	2302      	movs	r3, #2
 8003c2c:	e7f7      	b.n	8003c1e <check_fs+0x5a>
 8003c2e:	bf00      	nop
 8003c30:	009000eb 	.word	0x009000eb
 8003c34:	00544146 	.word	0x00544146
 8003c38:	33544146 	.word	0x33544146

08003c3c <find_volume>:
 8003c3c:	e92d 43f0 	stmdb	sp!, {r4, r5, r6, r7, r8, r9, lr}
 8003c40:	2300      	movs	r3, #0
 8003c42:	b085      	sub	sp, #20
 8003c44:	600b      	str	r3, [r1, #0]
 8003c46:	460f      	mov	r7, r1
 8003c48:	4616      	mov	r6, r2
 8003c4a:	f7ff ff36 	bl	8003aba <get_ldnumber>
 8003c4e:	1e05      	subs	r5, r0, #0
 8003c50:	f2c0 812d 	blt.w	8003eae <find_volume+0x272>
 8003c54:	4b99      	ldr	r3, [pc, #612]	@ (8003ebc <find_volume+0x280>)
 8003c56:	f853 4025 	ldr.w	r4, [r3, r5, lsl #2]
 8003c5a:	2c00      	cmp	r4, #0
 8003c5c:	f000 8129 	beq.w	8003eb2 <find_volume+0x276>
 8003c60:	603c      	str	r4, [r7, #0]
 8003c62:	7823      	ldrb	r3, [r4, #0]
 8003c64:	f006 06fe 	and.w	r6, r6, #254	@ 0xfe
 8003c68:	b173      	cbz	r3, 8003c88 <find_volume+0x4c>
 8003c6a:	7860      	ldrb	r0, [r4, #1]
 8003c6c:	f7ff fdf8 	bl	8003860 <disk_status>
 8003c70:	07c7      	lsls	r7, r0, #31
 8003c72:	d409      	bmi.n	8003c88 <find_volume+0x4c>
 8003c74:	2e00      	cmp	r6, #0
 8003c76:	f000 80f6 	beq.w	8003e66 <find_volume+0x22a>
 8003c7a:	0741      	lsls	r1, r0, #29
 8003c7c:	f140 80f3 	bpl.w	8003e66 <find_volume+0x22a>
 8003c80:	200a      	movs	r0, #10
 8003c82:	b005      	add	sp, #20
 8003c84:	e8bd 83f0 	ldmia.w	sp!, {r4, r5, r6, r7, r8, r9, pc}
 8003c88:	2300      	movs	r3, #0
 8003c8a:	b2e8      	uxtb	r0, r5
 8003c8c:	7023      	strb	r3, [r4, #0]
 8003c8e:	7060      	strb	r0, [r4, #1]
 8003c90:	f7ff fdf0 	bl	8003874 <disk_initialize>
 8003c94:	07c2      	lsls	r2, r0, #31
 8003c96:	f100 810e 	bmi.w	8003eb6 <find_volume+0x27a>
 8003c9a:	b10e      	cbz	r6, 8003ca0 <find_volume+0x64>
 8003c9c:	0743      	lsls	r3, r0, #29
 8003c9e:	d4ef      	bmi.n	8003c80 <find_volume+0x44>
 8003ca0:	7860      	ldrb	r0, [r4, #1]
 8003ca2:	f104 020c 	add.w	r2, r4, #12
 8003ca6:	2102      	movs	r1, #2
 8003ca8:	f7ff fe14 	bl	80038d4 <disk_ioctl>
 8003cac:	b108      	cbz	r0, 8003cb2 <find_volume+0x76>
 8003cae:	2001      	movs	r0, #1
 8003cb0:	e7e7      	b.n	8003c82 <find_volume+0x46>
 8003cb2:	89a3      	ldrh	r3, [r4, #12]
 8003cb4:	f5a3 7200 	sub.w	r2, r3, #512	@ 0x200
 8003cb8:	f5b2 6f60 	cmp.w	r2, #3584	@ 0xe00
 8003cbc:	d8f7      	bhi.n	8003cae <find_volume+0x72>
 8003cbe:	1e5d      	subs	r5, r3, #1
 8003cc0:	401d      	ands	r5, r3
 8003cc2:	d1f4      	bne.n	8003cae <find_volume+0x72>
 8003cc4:	4629      	mov	r1, r5
 8003cc6:	4620      	mov	r0, r4
 8003cc8:	f7ff ff7c 	bl	8003bc4 <check_fs>
 8003ccc:	2802      	cmp	r0, #2
 8003cce:	f040 80d4 	bne.w	8003e7a <find_volume+0x23e>
 8003cd2:	466f      	mov	r7, sp
 8003cd4:	f504 73ff 	add.w	r3, r4, #510	@ 0x1fe
 8003cd8:	f204 213e 	addw	r1, r4, #574	@ 0x23e
 8003cdc:	463a      	mov	r2, r7
 8003cde:	f813 0c04 	ldrb.w	r0, [r3, #-4]
 8003ce2:	b110      	cbz	r0, 8003cea <find_volume+0xae>
 8003ce4:	4618      	mov	r0, r3
 8003ce6:	f7ff fe03 	bl	80038f0 <ld_dword>
 8003cea:	3310      	adds	r3, #16
 8003cec:	428b      	cmp	r3, r1
 8003cee:	f842 0b04 	str.w	r0, [r2], #4
 8003cf2:	d1f4      	bne.n	8003cde <find_volume+0xa2>
 8003cf4:	2600      	movs	r6, #0
 8003cf6:	f857 5b04 	ldr.w	r5, [r7], #4
 8003cfa:	2d00      	cmp	r5, #0
 8003cfc:	f000 80b5 	beq.w	8003e6a <find_volume+0x22e>
 8003d00:	4629      	mov	r1, r5
 8003d02:	4620      	mov	r0, r4
 8003d04:	f7ff ff5e 	bl	8003bc4 <check_fs>
 8003d08:	2801      	cmp	r0, #1
 8003d0a:	f200 80af 	bhi.w	8003e6c <find_volume+0x230>
 8003d0e:	f8b4 800c 	ldrh.w	r8, [r4, #12]
 8003d12:	f8b4 3043 	ldrh.w	r3, [r4, #67]	@ 0x43
 8003d16:	4543      	cmp	r3, r8
 8003d18:	f040 80b5 	bne.w	8003e86 <find_volume+0x24a>
 8003d1c:	f8b4 704e 	ldrh.w	r7, [r4, #78]	@ 0x4e
 8003d20:	b927      	cbnz	r7, 8003d2c <find_volume+0xf0>
 8003d22:	f104 005c 	add.w	r0, r4, #92	@ 0x5c
 8003d26:	f7ff fde3 	bl	80038f0 <ld_dword>
 8003d2a:	4607      	mov	r7, r0
 8003d2c:	f894 2048 	ldrb.w	r2, [r4, #72]	@ 0x48
 8003d30:	6227      	str	r7, [r4, #32]
 8003d32:	1e53      	subs	r3, r2, #1
 8003d34:	2b01      	cmp	r3, #1
 8003d36:	70a2      	strb	r2, [r4, #2]
 8003d38:	f200 80a5 	bhi.w	8003e86 <find_volume+0x24a>
 8003d3c:	f894 6045 	ldrb.w	r6, [r4, #69]	@ 0x45
 8003d40:	8166      	strh	r6, [r4, #10]
 8003d42:	2e00      	cmp	r6, #0
 8003d44:	f000 809f 	beq.w	8003e86 <find_volume+0x24a>
 8003d48:	1e73      	subs	r3, r6, #1
 8003d4a:	4233      	tst	r3, r6
 8003d4c:	f040 809b 	bne.w	8003e86 <find_volume+0x24a>
 8003d50:	f8b4 9049 	ldrh.w	r9, [r4, #73]	@ 0x49
 8003d54:	f8a4 9008 	strh.w	r9, [r4, #8]
 8003d58:	ea4f 1358 	mov.w	r3, r8, lsr #5
 8003d5c:	fbb9 f1f3 	udiv	r1, r9, r3
 8003d60:	fb03 9311 	mls	r3, r3, r1, r9
 8003d64:	b29b      	uxth	r3, r3
 8003d66:	2b00      	cmp	r3, #0
 8003d68:	f040 808d 	bne.w	8003e86 <find_volume+0x24a>
 8003d6c:	f8b4 004b 	ldrh.w	r0, [r4, #75]	@ 0x4b
 8003d70:	b918      	cbnz	r0, 8003d7a <find_volume+0x13e>
 8003d72:	f104 0058 	add.w	r0, r4, #88	@ 0x58
 8003d76:	f7ff fdbb 	bl	80038f0 <ld_dword>
 8003d7a:	f8b4 3046 	ldrh.w	r3, [r4, #70]	@ 0x46
 8003d7e:	2b00      	cmp	r3, #0
 8003d80:	f000 8081 	beq.w	8003e86 <find_volume+0x24a>
 8003d84:	fb07 fc02 	mul.w	ip, r7, r2
 8003d88:	4419      	add	r1, r3
 8003d8a:	4461      	add	r1, ip
 8003d8c:	4288      	cmp	r0, r1
 8003d8e:	d37a      	bcc.n	8003e86 <find_volume+0x24a>
 8003d90:	1a40      	subs	r0, r0, r1
 8003d92:	42b0      	cmp	r0, r6
 8003d94:	fbb0 f2f6 	udiv	r2, r0, r6
 8003d98:	d375      	bcc.n	8003e86 <find_volume+0x24a>
 8003d9a:	f64f 70f5 	movw	r0, #65525	@ 0xfff5
 8003d9e:	4282      	cmp	r2, r0
 8003da0:	d873      	bhi.n	8003e8a <find_volume+0x24e>
 8003da2:	f640 76f5 	movw	r6, #4085	@ 0xff5
 8003da6:	42b2      	cmp	r2, r6
 8003da8:	bf8c      	ite	hi
 8003daa:	2602      	movhi	r6, #2
 8003dac:	2601      	movls	r6, #1
 8003dae:	3202      	adds	r2, #2
 8003db0:	442b      	add	r3, r5
 8003db2:	4429      	add	r1, r5
 8003db4:	2e03      	cmp	r6, #3
 8003db6:	61e2      	str	r2, [r4, #28]
 8003db8:	6265      	str	r5, [r4, #36]	@ 0x24
 8003dba:	62a3      	str	r3, [r4, #40]	@ 0x28
 8003dbc:	6321      	str	r1, [r4, #48]	@ 0x30
 8003dbe:	d166      	bne.n	8003e8e <find_volume+0x252>
 8003dc0:	f8b4 3062 	ldrh.w	r3, [r4, #98]	@ 0x62
 8003dc4:	ea59 0303 	orrs.w	r3, r9, r3
 8003dc8:	d15d      	bne.n	8003e86 <find_volume+0x24a>
 8003dca:	f104 0064 	add.w	r0, r4, #100	@ 0x64
 8003dce:	f7ff fd8f 	bl	80038f0 <ld_dword>
 8003dd2:	0092      	lsls	r2, r2, #2
 8003dd4:	f108 33ff 	add.w	r3, r8, #4294967295
 8003dd8:	4413      	add	r3, r2
 8003dda:	fbb3 f3f8 	udiv	r3, r3, r8
 8003dde:	42bb      	cmp	r3, r7
 8003de0:	62e0      	str	r0, [r4, #44]	@ 0x2c
 8003de2:	d850      	bhi.n	8003e86 <find_volume+0x24a>
 8003de4:	f04f 33ff 	mov.w	r3, #4294967295
 8003de8:	e9c4 3305 	strd	r3, r3, [r4, #20]
 8003dec:	2e03      	cmp	r6, #3
 8003dee:	f04f 0380 	mov.w	r3, #128	@ 0x80
 8003df2:	7123      	strb	r3, [r4, #4]
 8003df4:	d12b      	bne.n	8003e4e <find_volume+0x212>
 8003df6:	f8b4 3068 	ldrh.w	r3, [r4, #104]	@ 0x68
 8003dfa:	2b01      	cmp	r3, #1
 8003dfc:	d127      	bne.n	8003e4e <find_volume+0x212>
 8003dfe:	1c69      	adds	r1, r5, #1
 8003e00:	4620      	mov	r0, r4
 8003e02:	f7ff fec6 	bl	8003b92 <move_window>
 8003e06:	bb10      	cbnz	r0, 8003e4e <find_volume+0x212>
 8003e08:	f8b4 2236 	ldrh.w	r2, [r4, #566]	@ 0x236
 8003e0c:	7120      	strb	r0, [r4, #4]
 8003e0e:	f64a 2355 	movw	r3, #43605	@ 0xaa55
 8003e12:	429a      	cmp	r2, r3
 8003e14:	d11b      	bne.n	8003e4e <find_volume+0x212>
 8003e16:	f104 0038 	add.w	r0, r4, #56	@ 0x38
 8003e1a:	f7ff fd69 	bl	80038f0 <ld_dword>
 8003e1e:	4b28      	ldr	r3, [pc, #160]	@ (8003ec0 <find_volume+0x284>)
 8003e20:	4298      	cmp	r0, r3
 8003e22:	d114      	bne.n	8003e4e <find_volume+0x212>
 8003e24:	f504 7007 	add.w	r0, r4, #540	@ 0x21c
 8003e28:	f7ff fd62 	bl	80038f0 <ld_dword>
 8003e2c:	f103 53ff 	add.w	r3, r3, #534773760	@ 0x1fe00000
 8003e30:	f503 5300 	add.w	r3, r3, #8192	@ 0x2000
 8003e34:	3320      	adds	r3, #32
 8003e36:	4298      	cmp	r0, r3
 8003e38:	d109      	bne.n	8003e4e <find_volume+0x212>
 8003e3a:	f504 7008 	add.w	r0, r4, #544	@ 0x220
 8003e3e:	f7ff fd57 	bl	80038f0 <ld_dword>
 8003e42:	61a0      	str	r0, [r4, #24]
 8003e44:	f504 7009 	add.w	r0, r4, #548	@ 0x224
 8003e48:	f7ff fd52 	bl	80038f0 <ld_dword>
 8003e4c:	6160      	str	r0, [r4, #20]
 8003e4e:	4a1d      	ldr	r2, [pc, #116]	@ (8003ec4 <find_volume+0x288>)
 8003e50:	7026      	strb	r6, [r4, #0]
 8003e52:	8813      	ldrh	r3, [r2, #0]
 8003e54:	3301      	adds	r3, #1
 8003e56:	b29b      	uxth	r3, r3
 8003e58:	8013      	strh	r3, [r2, #0]
 8003e5a:	80e3      	strh	r3, [r4, #6]
 8003e5c:	4b1a      	ldr	r3, [pc, #104]	@ (8003ec8 <find_volume+0x28c>)
 8003e5e:	6123      	str	r3, [r4, #16]
 8003e60:	4620      	mov	r0, r4
 8003e62:	f7ff fdef 	bl	8003a44 <clear_lock>
 8003e66:	2000      	movs	r0, #0
 8003e68:	e70b      	b.n	8003c82 <find_volume+0x46>
 8003e6a:	2003      	movs	r0, #3
 8003e6c:	3601      	adds	r6, #1
 8003e6e:	2e04      	cmp	r6, #4
 8003e70:	f47f af41 	bne.w	8003cf6 <find_volume+0xba>
 8003e74:	2804      	cmp	r0, #4
 8003e76:	d106      	bne.n	8003e86 <find_volume+0x24a>
 8003e78:	e719      	b.n	8003cae <find_volume+0x72>
 8003e7a:	2804      	cmp	r0, #4
 8003e7c:	f43f af17 	beq.w	8003cae <find_volume+0x72>
 8003e80:	2801      	cmp	r0, #1
 8003e82:	f67f af44 	bls.w	8003d0e <find_volume+0xd2>
 8003e86:	200d      	movs	r0, #13
 8003e88:	e6fb      	b.n	8003c82 <find_volume+0x46>
 8003e8a:	2603      	movs	r6, #3
 8003e8c:	e78f      	b.n	8003dae <find_volume+0x172>
 8003e8e:	f1b9 0f00 	cmp.w	r9, #0
 8003e92:	d0f8      	beq.n	8003e86 <find_volume+0x24a>
 8003e94:	2e02      	cmp	r6, #2
 8003e96:	eb03 000c 	add.w	r0, r3, ip
 8003e9a:	ea4f 0342 	mov.w	r3, r2, lsl #1
 8003e9e:	bf1b      	ittet	ne
 8003ea0:	189b      	addne	r3, r3, r2
 8003ea2:	f002 0201 	andne.w	r2, r2, #1
 8003ea6:	461a      	moveq	r2, r3
 8003ea8:	eb02 0253 	addne.w	r2, r2, r3, lsr #1
 8003eac:	e792      	b.n	8003dd4 <find_volume+0x198>
 8003eae:	200b      	movs	r0, #11
 8003eb0:	e6e7      	b.n	8003c82 <find_volume+0x46>
 8003eb2:	200c      	movs	r0, #12
 8003eb4:	e6e5      	b.n	8003c82 <find_volume+0x46>
 8003eb6:	2003      	movs	r0, #3
 8003eb8:	e6e3      	b.n	8003c82 <find_volume+0x46>
 8003eba:	bf00      	nop
 8003ebc:	200025b0 	.word	0x200025b0
 8003ec0:	41615252 	.word	0x41615252
 8003ec4:	200025ac 	.word	0x200025ac
 8003ec8:	2000238a 	.word	0x2000238a

08003ecc <put_fat>:
 8003ecc:	2901      	cmp	r1, #1
 8003ece:	e92d 43f8 	stmdb	sp!, {r3, r4, r5, r6, r7, r8, r9, lr}
 8003ed2:	4605      	mov	r5, r0
 8003ed4:	460e      	mov	r6, r1
 8003ed6:	4614      	mov	r4, r2
 8003ed8:	f240 8086 	bls.w	8003fe8 <put_fat+0x11c>
 8003edc:	69c3      	ldr	r3, [r0, #28]
 8003ede:	428b      	cmp	r3, r1
 8003ee0:	f240 8082 	bls.w	8003fe8 <put_fat+0x11c>
 8003ee4:	7803      	ldrb	r3, [r0, #0]
 8003ee6:	2b02      	cmp	r3, #2
 8003ee8:	d047      	beq.n	8003f7a <put_fat+0xae>
 8003eea:	2b03      	cmp	r3, #3
 8003eec:	d05d      	beq.n	8003faa <put_fat+0xde>
 8003eee:	2b01      	cmp	r3, #1
 8003ef0:	d17a      	bne.n	8003fe8 <put_fat+0x11c>
 8003ef2:	eb01 0751 	add.w	r7, r1, r1, lsr #1
 8003ef6:	6a81      	ldr	r1, [r0, #40]	@ 0x28
 8003ef8:	8983      	ldrh	r3, [r0, #12]
 8003efa:	fbb7 f3f3 	udiv	r3, r7, r3
 8003efe:	4419      	add	r1, r3
 8003f00:	f7ff fe47 	bl	8003b92 <move_window>
 8003f04:	bb78      	cbnz	r0, 8003f66 <put_fat+0x9a>
 8003f06:	89ab      	ldrh	r3, [r5, #12]
 8003f08:	fbb7 f2f3 	udiv	r2, r7, r3
 8003f0c:	f105 0938 	add.w	r9, r5, #56	@ 0x38
 8003f10:	f107 0801 	add.w	r8, r7, #1
 8003f14:	fb03 7712 	mls	r7, r3, r2, r7
 8003f18:	f016 0601 	ands.w	r6, r6, #1
 8003f1c:	bf1f      	itttt	ne
 8003f1e:	f819 2007 	ldrbne.w	r2, [r9, r7]
 8003f22:	0123      	lslne	r3, r4, #4
 8003f24:	f003 03f0 	andne.w	r3, r3, #240	@ 0xf0
 8003f28:	f002 020f 	andne.w	r2, r2, #15
 8003f2c:	bf14      	ite	ne
 8003f2e:	4313      	orrne	r3, r2
 8003f30:	b2e3      	uxtbeq	r3, r4
 8003f32:	f809 3007 	strb.w	r3, [r9, r7]
 8003f36:	6aa9      	ldr	r1, [r5, #40]	@ 0x28
 8003f38:	2301      	movs	r3, #1
 8003f3a:	70eb      	strb	r3, [r5, #3]
 8003f3c:	4628      	mov	r0, r5
 8003f3e:	89ab      	ldrh	r3, [r5, #12]
 8003f40:	fbb8 f3f3 	udiv	r3, r8, r3
 8003f44:	4419      	add	r1, r3
 8003f46:	f7ff fe24 	bl	8003b92 <move_window>
 8003f4a:	b960      	cbnz	r0, 8003f66 <put_fat+0x9a>
 8003f4c:	89ab      	ldrh	r3, [r5, #12]
 8003f4e:	fbb8 f2f3 	udiv	r2, r8, r3
 8003f52:	fb03 8812 	mls	r8, r3, r2, r8
 8003f56:	b146      	cbz	r6, 8003f6a <put_fat+0x9e>
 8003f58:	f3c4 1407 	ubfx	r4, r4, #4, #8
 8003f5c:	f809 4008 	strb.w	r4, [r9, r8]
 8003f60:	2301      	movs	r3, #1
 8003f62:	70eb      	strb	r3, [r5, #3]
 8003f64:	2000      	movs	r0, #0
 8003f66:	e8bd 83f8 	ldmia.w	sp!, {r3, r4, r5, r6, r7, r8, r9, pc}
 8003f6a:	f819 3008 	ldrb.w	r3, [r9, r8]
 8003f6e:	f3c4 2403 	ubfx	r4, r4, #8, #4
 8003f72:	f023 030f 	bic.w	r3, r3, #15
 8003f76:	431c      	orrs	r4, r3
 8003f78:	e7f0      	b.n	8003f5c <put_fat+0x90>
 8003f7a:	8983      	ldrh	r3, [r0, #12]
 8003f7c:	085b      	lsrs	r3, r3, #1
 8003f7e:	fbb1 f3f3 	udiv	r3, r1, r3
 8003f82:	6a81      	ldr	r1, [r0, #40]	@ 0x28
 8003f84:	4419      	add	r1, r3
 8003f86:	f7ff fe04 	bl	8003b92 <move_window>
 8003f8a:	2800      	cmp	r0, #0
 8003f8c:	d1eb      	bne.n	8003f66 <put_fat+0x9a>
 8003f8e:	89aa      	ldrh	r2, [r5, #12]
 8003f90:	0076      	lsls	r6, r6, #1
 8003f92:	f105 0338 	add.w	r3, r5, #56	@ 0x38
 8003f96:	fbb6 f1f2 	udiv	r1, r6, r2
 8003f9a:	fb02 6611 	mls	r6, r2, r1, r6
 8003f9e:	199a      	adds	r2, r3, r6
 8003fa0:	559c      	strb	r4, [r3, r6]
 8003fa2:	f3c4 2407 	ubfx	r4, r4, #8, #8
 8003fa6:	7054      	strb	r4, [r2, #1]
 8003fa8:	e7da      	b.n	8003f60 <put_fat+0x94>
 8003faa:	8983      	ldrh	r3, [r0, #12]
 8003fac:	089b      	lsrs	r3, r3, #2
 8003fae:	fbb1 f3f3 	udiv	r3, r1, r3
 8003fb2:	6a81      	ldr	r1, [r0, #40]	@ 0x28
 8003fb4:	4419      	add	r1, r3
 8003fb6:	f7ff fdec 	bl	8003b92 <move_window>
 8003fba:	2800      	cmp	r0, #0
 8003fbc:	d1d3      	bne.n	8003f66 <put_fat+0x9a>
 8003fbe:	89aa      	ldrh	r2, [r5, #12]
 8003fc0:	00b6      	lsls	r6, r6, #2
 8003fc2:	f105 0338 	add.w	r3, r5, #56	@ 0x38
 8003fc6:	fbb6 f1f2 	udiv	r1, r6, r2
 8003fca:	fb02 6611 	mls	r6, r2, r1, r6
 8003fce:	4433      	add	r3, r6
 8003fd0:	4618      	mov	r0, r3
 8003fd2:	f7ff fc8d 	bl	80038f0 <ld_dword>
 8003fd6:	f024 4470 	bic.w	r4, r4, #4026531840	@ 0xf0000000
 8003fda:	f000 4170 	and.w	r1, r0, #4026531840	@ 0xf0000000
 8003fde:	4321      	orrs	r1, r4
 8003fe0:	4618      	mov	r0, r3
 8003fe2:	f7ff fc87 	bl	80038f4 <st_dword>
 8003fe6:	e7bb      	b.n	8003f60 <put_fat+0x94>
 8003fe8:	2002      	movs	r0, #2
 8003fea:	e7bc      	b.n	8003f66 <put_fat+0x9a>

08003fec <sync_fs>:
 8003fec:	b5f8      	push	{r3, r4, r5, r6, r7, lr}
 8003fee:	4604      	mov	r4, r0
 8003ff0:	f7ff fd95 	bl	8003b1e <sync_window>
 8003ff4:	4605      	mov	r5, r0
 8003ff6:	2800      	cmp	r0, #0
 8003ff8:	d141      	bne.n	800407e <sync_fs+0x92>
 8003ffa:	7823      	ldrb	r3, [r4, #0]
 8003ffc:	2b03      	cmp	r3, #3
 8003ffe:	d136      	bne.n	800406e <sync_fs+0x82>
 8004000:	7927      	ldrb	r7, [r4, #4]
 8004002:	2f01      	cmp	r7, #1
 8004004:	d133      	bne.n	800406e <sync_fs+0x82>
 8004006:	f104 0638 	add.w	r6, r4, #56	@ 0x38
 800400a:	4601      	mov	r1, r0
 800400c:	89a2      	ldrh	r2, [r4, #12]
 800400e:	4630      	mov	r0, r6
 8004010:	2355      	movs	r3, #85	@ 0x55
 8004012:	f7ff fc77 	bl	8003904 <mem_set>
 8004016:	f884 3236 	strb.w	r3, [r4, #566]	@ 0x236
 800401a:	23aa      	movs	r3, #170	@ 0xaa
 800401c:	f884 3237 	strb.w	r3, [r4, #567]	@ 0x237
 8004020:	2352      	movs	r3, #82	@ 0x52
 8004022:	2241      	movs	r2, #65	@ 0x41
 8004024:	2172      	movs	r1, #114	@ 0x72
 8004026:	f884 3038 	strb.w	r3, [r4, #56]	@ 0x38
 800402a:	f884 3039 	strb.w	r3, [r4, #57]	@ 0x39
 800402e:	2361      	movs	r3, #97	@ 0x61
 8004030:	f884 303a 	strb.w	r3, [r4, #58]	@ 0x3a
 8004034:	f884 321f 	strb.w	r3, [r4, #543]	@ 0x21f
 8004038:	f884 203b 	strb.w	r2, [r4, #59]	@ 0x3b
 800403c:	f884 121c 	strb.w	r1, [r4, #540]	@ 0x21c
 8004040:	f884 121d 	strb.w	r1, [r4, #541]	@ 0x21d
 8004044:	f884 221e 	strb.w	r2, [r4, #542]	@ 0x21e
 8004048:	69a1      	ldr	r1, [r4, #24]
 800404a:	f504 7008 	add.w	r0, r4, #544	@ 0x220
 800404e:	f7ff fc51 	bl	80038f4 <st_dword>
 8004052:	6961      	ldr	r1, [r4, #20]
 8004054:	f504 7009 	add.w	r0, r4, #548	@ 0x224
 8004058:	f7ff fc4c 	bl	80038f4 <st_dword>
 800405c:	6a62      	ldr	r2, [r4, #36]	@ 0x24
 800405e:	7860      	ldrb	r0, [r4, #1]
 8004060:	3201      	adds	r2, #1
 8004062:	6362      	str	r2, [r4, #52]	@ 0x34
 8004064:	463b      	mov	r3, r7
 8004066:	4631      	mov	r1, r6
 8004068:	f7ff fc26 	bl	80038b8 <disk_write>
 800406c:	7125      	strb	r5, [r4, #4]
 800406e:	2200      	movs	r2, #0
 8004070:	7860      	ldrb	r0, [r4, #1]
 8004072:	4611      	mov	r1, r2
 8004074:	f7ff fc2e 	bl	80038d4 <disk_ioctl>
 8004078:	3800      	subs	r0, #0
 800407a:	bf18      	it	ne
 800407c:	2001      	movne	r0, #1
 800407e:	bdf8      	pop	{r3, r4, r5, r6, r7, pc}

08004080 <ld_clust.isra.0>:
 8004080:	2803      	cmp	r0, #3
 8004082:	8b4b      	ldrh	r3, [r1, #26]
 8004084:	bf04      	itt	eq
 8004086:	8a8a      	ldrheq	r2, [r1, #20]
 8004088:	ea43 4302 	orreq.w	r3, r3, r2, lsl #16
 800408c:	4618      	mov	r0, r3
 800408e:	4770      	bx	lr

08004090 <get_fat.isra.0>:
 8004090:	2901      	cmp	r1, #1
 8004092:	b5f8      	push	{r3, r4, r5, r6, r7, lr}
 8004094:	4607      	mov	r7, r0
 8004096:	460c      	mov	r4, r1
 8004098:	d963      	bls.n	8004162 <get_fat.isra.0+0xd2>
 800409a:	69c3      	ldr	r3, [r0, #28]
 800409c:	4299      	cmp	r1, r3
 800409e:	d260      	bcs.n	8004162 <get_fat.isra.0+0xd2>
 80040a0:	7803      	ldrb	r3, [r0, #0]
 80040a2:	2b02      	cmp	r3, #2
 80040a4:	d032      	beq.n	800410c <get_fat.isra.0+0x7c>
 80040a6:	2b03      	cmp	r3, #3
 80040a8:	d043      	beq.n	8004132 <get_fat.isra.0+0xa2>
 80040aa:	2b01      	cmp	r3, #1
 80040ac:	d159      	bne.n	8004162 <get_fat.isra.0+0xd2>
 80040ae:	eb01 0551 	add.w	r5, r1, r1, lsr #1
 80040b2:	6a81      	ldr	r1, [r0, #40]	@ 0x28
 80040b4:	8983      	ldrh	r3, [r0, #12]
 80040b6:	fbb5 f3f3 	udiv	r3, r5, r3
 80040ba:	4419      	add	r1, r3
 80040bc:	f7ff fd69 	bl	8003b92 <move_window>
 80040c0:	b110      	cbz	r0, 80040c8 <get_fat.isra.0+0x38>
 80040c2:	f04f 30ff 	mov.w	r0, #4294967295
 80040c6:	bdf8      	pop	{r3, r4, r5, r6, r7, pc}
 80040c8:	89b9      	ldrh	r1, [r7, #12]
 80040ca:	fbb5 f3f1 	udiv	r3, r5, r1
 80040ce:	1c6e      	adds	r6, r5, #1
 80040d0:	fb01 5513 	mls	r5, r1, r3, r5
 80040d4:	6abb      	ldr	r3, [r7, #40]	@ 0x28
 80040d6:	fbb6 f1f1 	udiv	r1, r6, r1
 80040da:	443d      	add	r5, r7
 80040dc:	4419      	add	r1, r3
 80040de:	4638      	mov	r0, r7
 80040e0:	f895 5038 	ldrb.w	r5, [r5, #56]	@ 0x38
 80040e4:	f7ff fd55 	bl	8003b92 <move_window>
 80040e8:	2800      	cmp	r0, #0
 80040ea:	d1ea      	bne.n	80040c2 <get_fat.isra.0+0x32>
 80040ec:	89bb      	ldrh	r3, [r7, #12]
 80040ee:	fbb6 f2f3 	udiv	r2, r6, r3
 80040f2:	fb03 6612 	mls	r6, r3, r2, r6
 80040f6:	19b8      	adds	r0, r7, r6
 80040f8:	f890 3038 	ldrb.w	r3, [r0, #56]	@ 0x38
 80040fc:	ea45 2003 	orr.w	r0, r5, r3, lsl #8
 8004100:	07e3      	lsls	r3, r4, #31
 8004102:	bf4c      	ite	mi
 8004104:	0900      	lsrmi	r0, r0, #4
 8004106:	f3c0 000b 	ubfxpl	r0, r0, #0, #12
 800410a:	e7dc      	b.n	80040c6 <get_fat.isra.0+0x36>
 800410c:	8983      	ldrh	r3, [r0, #12]
 800410e:	085b      	lsrs	r3, r3, #1
 8004110:	fbb1 f3f3 	udiv	r3, r1, r3
 8004114:	6a81      	ldr	r1, [r0, #40]	@ 0x28
 8004116:	4419      	add	r1, r3
 8004118:	f7ff fd3b 	bl	8003b92 <move_window>
 800411c:	2800      	cmp	r0, #0
 800411e:	d1d0      	bne.n	80040c2 <get_fat.isra.0+0x32>
 8004120:	89bb      	ldrh	r3, [r7, #12]
 8004122:	0064      	lsls	r4, r4, #1
 8004124:	fbb4 f2f3 	udiv	r2, r4, r3
 8004128:	fb03 4412 	mls	r4, r3, r2, r4
 800412c:	443c      	add	r4, r7
 800412e:	8f20      	ldrh	r0, [r4, #56]	@ 0x38
 8004130:	e7c9      	b.n	80040c6 <get_fat.isra.0+0x36>
 8004132:	8983      	ldrh	r3, [r0, #12]
 8004134:	089b      	lsrs	r3, r3, #2
 8004136:	fbb1 f3f3 	udiv	r3, r1, r3
 800413a:	6a81      	ldr	r1, [r0, #40]	@ 0x28
 800413c:	4419      	add	r1, r3
 800413e:	f7ff fd28 	bl	8003b92 <move_window>
 8004142:	2800      	cmp	r0, #0
 8004144:	d1bd      	bne.n	80040c2 <get_fat.isra.0+0x32>
 8004146:	89bb      	ldrh	r3, [r7, #12]
 8004148:	00a4      	lsls	r4, r4, #2
 800414a:	f107 0038 	add.w	r0, r7, #56	@ 0x38
 800414e:	fbb4 f2f3 	udiv	r2, r4, r3
 8004152:	fb03 4412 	mls	r4, r3, r2, r4
 8004156:	4420      	add	r0, r4
 8004158:	f7ff fbca 	bl	80038f0 <ld_dword>
 800415c:	f020 4070 	bic.w	r0, r0, #4026531840	@ 0xf0000000
 8004160:	e7b1      	b.n	80040c6 <get_fat.isra.0+0x36>
 8004162:	2001      	movs	r0, #1
 8004164:	e7af      	b.n	80040c6 <get_fat.isra.0+0x36>

08004166 <remove_chain>:
 8004166:	b5f8      	push	{r3, r4, r5, r6, r7, lr}
 8004168:	460c      	mov	r4, r1
 800416a:	2c01      	cmp	r4, #1
 800416c:	6805      	ldr	r5, [r0, #0]
 800416e:	4606      	mov	r6, r0
 8004170:	4611      	mov	r1, r2
 8004172:	d92b      	bls.n	80041cc <remove_chain+0x66>
 8004174:	69eb      	ldr	r3, [r5, #28]
 8004176:	42a3      	cmp	r3, r4
 8004178:	d928      	bls.n	80041cc <remove_chain+0x66>
 800417a:	b12a      	cbz	r2, 8004188 <remove_chain+0x22>
 800417c:	f04f 32ff 	mov.w	r2, #4294967295
 8004180:	4628      	mov	r0, r5
 8004182:	f7ff fea3 	bl	8003ecc <put_fat>
 8004186:	b938      	cbnz	r0, 8004198 <remove_chain+0x32>
 8004188:	4621      	mov	r1, r4
 800418a:	6830      	ldr	r0, [r6, #0]
 800418c:	f7ff ff80 	bl	8004090 <get_fat.isra.0>
 8004190:	4627      	mov	r7, r4
 8004192:	4604      	mov	r4, r0
 8004194:	b908      	cbnz	r0, 800419a <remove_chain+0x34>
 8004196:	2000      	movs	r0, #0
 8004198:	bdf8      	pop	{r3, r4, r5, r6, r7, pc}
 800419a:	2801      	cmp	r0, #1
 800419c:	d016      	beq.n	80041cc <remove_chain+0x66>
 800419e:	1c43      	adds	r3, r0, #1
 80041a0:	d016      	beq.n	80041d0 <remove_chain+0x6a>
 80041a2:	2200      	movs	r2, #0
 80041a4:	4639      	mov	r1, r7
 80041a6:	4628      	mov	r0, r5
 80041a8:	f7ff fe90 	bl	8003ecc <put_fat>
 80041ac:	2800      	cmp	r0, #0
 80041ae:	d1f3      	bne.n	8004198 <remove_chain+0x32>
 80041b0:	e9d5 3206 	ldrd	r3, r2, [r5, #24]
 80041b4:	1e91      	subs	r1, r2, #2
 80041b6:	428b      	cmp	r3, r1
 80041b8:	d205      	bcs.n	80041c6 <remove_chain+0x60>
 80041ba:	3301      	adds	r3, #1
 80041bc:	61ab      	str	r3, [r5, #24]
 80041be:	792b      	ldrb	r3, [r5, #4]
 80041c0:	f043 0301 	orr.w	r3, r3, #1
 80041c4:	712b      	strb	r3, [r5, #4]
 80041c6:	42a2      	cmp	r2, r4
 80041c8:	d8de      	bhi.n	8004188 <remove_chain+0x22>
 80041ca:	e7e4      	b.n	8004196 <remove_chain+0x30>
 80041cc:	2002      	movs	r0, #2
 80041ce:	e7e3      	b.n	8004198 <remove_chain+0x32>
 80041d0:	2001      	movs	r0, #1
 80041d2:	e7e1      	b.n	8004198 <remove_chain+0x32>

080041d4 <create_chain>:
 80041d4:	e92d 41f0 	stmdb	sp!, {r4, r5, r6, r7, r8, lr}
 80041d8:	6805      	ldr	r5, [r0, #0]
 80041da:	4680      	mov	r8, r0
 80041dc:	460f      	mov	r7, r1
 80041de:	b971      	cbnz	r1, 80041fe <create_chain+0x2a>
 80041e0:	696e      	ldr	r6, [r5, #20]
 80041e2:	b1ee      	cbz	r6, 8004220 <create_chain+0x4c>
 80041e4:	69eb      	ldr	r3, [r5, #28]
 80041e6:	429e      	cmp	r6, r3
 80041e8:	bf28      	it	cs
 80041ea:	2601      	movcs	r6, #1
 80041ec:	4634      	mov	r4, r6
 80041ee:	69eb      	ldr	r3, [r5, #28]
 80041f0:	3401      	adds	r4, #1
 80041f2:	42a3      	cmp	r3, r4
 80041f4:	d817      	bhi.n	8004226 <create_chain+0x52>
 80041f6:	2e01      	cmp	r6, #1
 80041f8:	d114      	bne.n	8004224 <create_chain+0x50>
 80041fa:	2400      	movs	r4, #0
 80041fc:	e006      	b.n	800420c <create_chain+0x38>
 80041fe:	4628      	mov	r0, r5
 8004200:	f7ff ff46 	bl	8004090 <get_fat.isra.0>
 8004204:	2801      	cmp	r0, #1
 8004206:	4604      	mov	r4, r0
 8004208:	d803      	bhi.n	8004212 <create_chain+0x3e>
 800420a:	2401      	movs	r4, #1
 800420c:	4620      	mov	r0, r4
 800420e:	e8bd 81f0 	ldmia.w	sp!, {r4, r5, r6, r7, r8, pc}
 8004212:	1c43      	adds	r3, r0, #1
 8004214:	d030      	beq.n	8004278 <create_chain+0xa4>
 8004216:	69eb      	ldr	r3, [r5, #28]
 8004218:	4283      	cmp	r3, r0
 800421a:	d8f7      	bhi.n	800420c <create_chain+0x38>
 800421c:	463e      	mov	r6, r7
 800421e:	e7e5      	b.n	80041ec <create_chain+0x18>
 8004220:	2601      	movs	r6, #1
 8004222:	e7e3      	b.n	80041ec <create_chain+0x18>
 8004224:	2402      	movs	r4, #2
 8004226:	f8d8 0000 	ldr.w	r0, [r8]
 800422a:	4621      	mov	r1, r4
 800422c:	f7ff ff30 	bl	8004090 <get_fat.isra.0>
 8004230:	b130      	cbz	r0, 8004240 <create_chain+0x6c>
 8004232:	2801      	cmp	r0, #1
 8004234:	d0e9      	beq.n	800420a <create_chain+0x36>
 8004236:	3001      	adds	r0, #1
 8004238:	d01e      	beq.n	8004278 <create_chain+0xa4>
 800423a:	42b4      	cmp	r4, r6
 800423c:	d1d7      	bne.n	80041ee <create_chain+0x1a>
 800423e:	e7dc      	b.n	80041fa <create_chain+0x26>
 8004240:	f04f 32ff 	mov.w	r2, #4294967295
 8004244:	4621      	mov	r1, r4
 8004246:	4628      	mov	r0, r5
 8004248:	f7ff fe40 	bl	8003ecc <put_fat>
 800424c:	b990      	cbnz	r0, 8004274 <create_chain+0xa0>
 800424e:	b957      	cbnz	r7, 8004266 <create_chain+0x92>
 8004250:	e9d5 3206 	ldrd	r3, r2, [r5, #24]
 8004254:	3a02      	subs	r2, #2
 8004256:	4293      	cmp	r3, r2
 8004258:	616c      	str	r4, [r5, #20]
 800425a:	d910      	bls.n	800427e <create_chain+0xaa>
 800425c:	792b      	ldrb	r3, [r5, #4]
 800425e:	f043 0301 	orr.w	r3, r3, #1
 8004262:	712b      	strb	r3, [r5, #4]
 8004264:	e7d2      	b.n	800420c <create_chain+0x38>
 8004266:	4622      	mov	r2, r4
 8004268:	4639      	mov	r1, r7
 800426a:	4628      	mov	r0, r5
 800426c:	f7ff fe2e 	bl	8003ecc <put_fat>
 8004270:	2800      	cmp	r0, #0
 8004272:	d0ed      	beq.n	8004250 <create_chain+0x7c>
 8004274:	2801      	cmp	r0, #1
 8004276:	d1c8      	bne.n	800420a <create_chain+0x36>
 8004278:	f04f 34ff 	mov.w	r4, #4294967295
 800427c:	e7c6      	b.n	800420c <create_chain+0x38>
 800427e:	3b01      	subs	r3, #1
 8004280:	61ab      	str	r3, [r5, #24]
 8004282:	e7eb      	b.n	800425c <create_chain+0x88>

08004284 <dir_next>:
 8004284:	e92d 43f8 	stmdb	sp!, {r3, r4, r5, r6, r7, r8, r9, lr}
 8004288:	6947      	ldr	r7, [r0, #20]
 800428a:	69c3      	ldr	r3, [r0, #28]
 800428c:	4605      	mov	r5, r0
 800428e:	4689      	mov	r9, r1
 8004290:	3720      	adds	r7, #32
 8004292:	b1a3      	cbz	r3, 80042be <dir_next+0x3a>
 8004294:	f5b7 1f00 	cmp.w	r7, #2097152	@ 0x200000
 8004298:	d211      	bcs.n	80042be <dir_next+0x3a>
 800429a:	6804      	ldr	r4, [r0, #0]
 800429c:	89a2      	ldrh	r2, [r4, #12]
 800429e:	fbb7 f0f2 	udiv	r0, r7, r2
 80042a2:	fb02 7210 	mls	r2, r2, r0, r7
 80042a6:	2a00      	cmp	r2, #0
 80042a8:	d14e      	bne.n	8004348 <dir_next+0xc4>
 80042aa:	69a9      	ldr	r1, [r5, #24]
 80042ac:	3301      	adds	r3, #1
 80042ae:	61eb      	str	r3, [r5, #28]
 80042b0:	b941      	cbnz	r1, 80042c4 <dir_next+0x40>
 80042b2:	8923      	ldrh	r3, [r4, #8]
 80042b4:	ebb3 1f57 	cmp.w	r3, r7, lsr #5
 80042b8:	d846      	bhi.n	8004348 <dir_next+0xc4>
 80042ba:	2300      	movs	r3, #0
 80042bc:	61eb      	str	r3, [r5, #28]
 80042be:	2004      	movs	r0, #4
 80042c0:	e8bd 83f8 	ldmia.w	sp!, {r3, r4, r5, r6, r7, r8, r9, pc}
 80042c4:	f8b4 800a 	ldrh.w	r8, [r4, #10]
 80042c8:	f108 38ff 	add.w	r8, r8, #4294967295
 80042cc:	ea18 0800 	ands.w	r8, r8, r0
 80042d0:	d13a      	bne.n	8004348 <dir_next+0xc4>
 80042d2:	4620      	mov	r0, r4
 80042d4:	f7ff fedc 	bl	8004090 <get_fat.isra.0>
 80042d8:	2801      	cmp	r0, #1
 80042da:	4606      	mov	r6, r0
 80042dc:	d801      	bhi.n	80042e2 <dir_next+0x5e>
 80042de:	2002      	movs	r0, #2
 80042e0:	e7ee      	b.n	80042c0 <dir_next+0x3c>
 80042e2:	1c42      	adds	r2, r0, #1
 80042e4:	d101      	bne.n	80042ea <dir_next+0x66>
 80042e6:	2001      	movs	r0, #1
 80042e8:	e7ea      	b.n	80042c0 <dir_next+0x3c>
 80042ea:	69e3      	ldr	r3, [r4, #28]
 80042ec:	4283      	cmp	r3, r0
 80042ee:	d825      	bhi.n	800433c <dir_next+0xb8>
 80042f0:	f1b9 0f00 	cmp.w	r9, #0
 80042f4:	d0e1      	beq.n	80042ba <dir_next+0x36>
 80042f6:	69a9      	ldr	r1, [r5, #24]
 80042f8:	4628      	mov	r0, r5
 80042fa:	f7ff ff6b 	bl	80041d4 <create_chain>
 80042fe:	4606      	mov	r6, r0
 8004300:	2800      	cmp	r0, #0
 8004302:	d039      	beq.n	8004378 <dir_next+0xf4>
 8004304:	2801      	cmp	r0, #1
 8004306:	d0ea      	beq.n	80042de <dir_next+0x5a>
 8004308:	1c43      	adds	r3, r0, #1
 800430a:	d0ec      	beq.n	80042e6 <dir_next+0x62>
 800430c:	4620      	mov	r0, r4
 800430e:	f7ff fc06 	bl	8003b1e <sync_window>
 8004312:	4601      	mov	r1, r0
 8004314:	2800      	cmp	r0, #0
 8004316:	d1e6      	bne.n	80042e6 <dir_next+0x62>
 8004318:	f104 0038 	add.w	r0, r4, #56	@ 0x38
 800431c:	89a2      	ldrh	r2, [r4, #12]
 800431e:	f7ff faf1 	bl	8003904 <mem_set>
 8004322:	4631      	mov	r1, r6
 8004324:	4620      	mov	r0, r4
 8004326:	f7ff fb9b 	bl	8003a60 <clust2sect>
 800432a:	f04f 0901 	mov.w	r9, #1
 800432e:	8963      	ldrh	r3, [r4, #10]
 8004330:	6360      	str	r0, [r4, #52]	@ 0x34
 8004332:	4598      	cmp	r8, r3
 8004334:	d314      	bcc.n	8004360 <dir_next+0xdc>
 8004336:	eba0 0008 	sub.w	r0, r0, r8
 800433a:	6360      	str	r0, [r4, #52]	@ 0x34
 800433c:	61ae      	str	r6, [r5, #24]
 800433e:	4631      	mov	r1, r6
 8004340:	4620      	mov	r0, r4
 8004342:	f7ff fb8d 	bl	8003a60 <clust2sect>
 8004346:	61e8      	str	r0, [r5, #28]
 8004348:	89a2      	ldrh	r2, [r4, #12]
 800434a:	616f      	str	r7, [r5, #20]
 800434c:	f104 0338 	add.w	r3, r4, #56	@ 0x38
 8004350:	fbb7 f1f2 	udiv	r1, r7, r2
 8004354:	fb02 7711 	mls	r7, r2, r1, r7
 8004358:	443b      	add	r3, r7
 800435a:	622b      	str	r3, [r5, #32]
 800435c:	2000      	movs	r0, #0
 800435e:	e7af      	b.n	80042c0 <dir_next+0x3c>
 8004360:	f884 9003 	strb.w	r9, [r4, #3]
 8004364:	4620      	mov	r0, r4
 8004366:	f7ff fbda 	bl	8003b1e <sync_window>
 800436a:	2800      	cmp	r0, #0
 800436c:	d1bb      	bne.n	80042e6 <dir_next+0x62>
 800436e:	6b60      	ldr	r0, [r4, #52]	@ 0x34
 8004370:	f108 0801 	add.w	r8, r8, #1
 8004374:	3001      	adds	r0, #1
 8004376:	e7da      	b.n	800432e <dir_next+0xaa>
 8004378:	2007      	movs	r0, #7
 800437a:	e7a1      	b.n	80042c0 <dir_next+0x3c>

0800437c <dir_sdi>:
 800437c:	f5b1 1f00 	cmp.w	r1, #2097152	@ 0x200000
 8004380:	b5f8      	push	{r3, r4, r5, r6, r7, lr}
 8004382:	6804      	ldr	r4, [r0, #0]
 8004384:	4606      	mov	r6, r0
 8004386:	460d      	mov	r5, r1
 8004388:	d301      	bcc.n	800438e <dir_sdi+0x12>
 800438a:	2002      	movs	r0, #2
 800438c:	bdf8      	pop	{r3, r4, r5, r6, r7, pc}
 800438e:	06ca      	lsls	r2, r1, #27
 8004390:	d1fb      	bne.n	800438a <dir_sdi+0xe>
 8004392:	6882      	ldr	r2, [r0, #8]
 8004394:	6141      	str	r1, [r0, #20]
 8004396:	b9ca      	cbnz	r2, 80043cc <dir_sdi+0x50>
 8004398:	7823      	ldrb	r3, [r4, #0]
 800439a:	2b02      	cmp	r3, #2
 800439c:	d901      	bls.n	80043a2 <dir_sdi+0x26>
 800439e:	6ae3      	ldr	r3, [r4, #44]	@ 0x2c
 80043a0:	b9ab      	cbnz	r3, 80043ce <dir_sdi+0x52>
 80043a2:	8923      	ldrh	r3, [r4, #8]
 80043a4:	ebb3 1f55 	cmp.w	r3, r5, lsr #5
 80043a8:	d9ef      	bls.n	800438a <dir_sdi+0xe>
 80043aa:	6ae0      	ldr	r0, [r4, #44]	@ 0x2c
 80043ac:	e9c6 2006 	strd	r2, r0, [r6, #24]
 80043b0:	2800      	cmp	r0, #0
 80043b2:	d0ea      	beq.n	800438a <dir_sdi+0xe>
 80043b4:	89a2      	ldrh	r2, [r4, #12]
 80043b6:	fbb5 f3f2 	udiv	r3, r5, r2
 80043ba:	3438      	adds	r4, #56	@ 0x38
 80043bc:	fb02 5513 	mls	r5, r2, r3, r5
 80043c0:	4418      	add	r0, r3
 80043c2:	442c      	add	r4, r5
 80043c4:	61f0      	str	r0, [r6, #28]
 80043c6:	6234      	str	r4, [r6, #32]
 80043c8:	2000      	movs	r0, #0
 80043ca:	e7df      	b.n	800438c <dir_sdi+0x10>
 80043cc:	4613      	mov	r3, r2
 80043ce:	89a2      	ldrh	r2, [r4, #12]
 80043d0:	8967      	ldrh	r7, [r4, #10]
 80043d2:	4357      	muls	r7, r2
 80043d4:	461a      	mov	r2, r3
 80043d6:	42bd      	cmp	r5, r7
 80043d8:	4611      	mov	r1, r2
 80043da:	d203      	bcs.n	80043e4 <dir_sdi+0x68>
 80043dc:	4620      	mov	r0, r4
 80043de:	f7ff fb3f 	bl	8003a60 <clust2sect>
 80043e2:	e7e3      	b.n	80043ac <dir_sdi+0x30>
 80043e4:	6830      	ldr	r0, [r6, #0]
 80043e6:	f7ff fe53 	bl	8004090 <get_fat.isra.0>
 80043ea:	1c43      	adds	r3, r0, #1
 80043ec:	4602      	mov	r2, r0
 80043ee:	d006      	beq.n	80043fe <dir_sdi+0x82>
 80043f0:	2801      	cmp	r0, #1
 80043f2:	d9ca      	bls.n	800438a <dir_sdi+0xe>
 80043f4:	69e3      	ldr	r3, [r4, #28]
 80043f6:	4283      	cmp	r3, r0
 80043f8:	d9c7      	bls.n	800438a <dir_sdi+0xe>
 80043fa:	1bed      	subs	r5, r5, r7
 80043fc:	e7eb      	b.n	80043d6 <dir_sdi+0x5a>
 80043fe:	2001      	movs	r0, #1
 8004400:	e7c4      	b.n	800438c <dir_sdi+0x10>
	...

08004404 <dir_find>:
 8004404:	e92d 4ff0 	stmdb	sp!, {r4, r5, r6, r7, r8, r9, sl, fp, lr}
 8004408:	b085      	sub	sp, #20
 800440a:	6803      	ldr	r3, [r0, #0]
 800440c:	9300      	str	r3, [sp, #0]
 800440e:	2100      	movs	r1, #0
 8004410:	4604      	mov	r4, r0
 8004412:	f7ff ffb3 	bl	800437c <dir_sdi>
 8004416:	4606      	mov	r6, r0
 8004418:	2800      	cmp	r0, #0
 800441a:	f040 8096 	bne.w	800454a <dir_find+0x146>
 800441e:	f04f 3aff 	mov.w	sl, #4294967295
 8004422:	f04f 08ff 	mov.w	r8, #255	@ 0xff
 8004426:	f8c4 a030 	str.w	sl, [r4, #48]	@ 0x30
 800442a:	46c1      	mov	r9, r8
 800442c:	69e1      	ldr	r1, [r4, #28]
 800442e:	9800      	ldr	r0, [sp, #0]
 8004430:	f7ff fbaf 	bl	8003b92 <move_window>
 8004434:	4606      	mov	r6, r0
 8004436:	2800      	cmp	r0, #0
 8004438:	f040 8087 	bne.w	800454a <dir_find+0x146>
 800443c:	6a25      	ldr	r5, [r4, #32]
 800443e:	782f      	ldrb	r7, [r5, #0]
 8004440:	2f00      	cmp	r7, #0
 8004442:	f000 8086 	beq.w	8004552 <dir_find+0x14e>
 8004446:	7aea      	ldrb	r2, [r5, #11]
 8004448:	2fe5      	cmp	r7, #229	@ 0xe5
 800444a:	f002 033f 	and.w	r3, r2, #63	@ 0x3f
 800444e:	71a3      	strb	r3, [r4, #6]
 8004450:	d003      	beq.n	800445a <dir_find+0x56>
 8004452:	0710      	lsls	r0, r2, #28
 8004454:	d504      	bpl.n	8004460 <dir_find+0x5c>
 8004456:	2b0f      	cmp	r3, #15
 8004458:	d004      	beq.n	8004464 <dir_find+0x60>
 800445a:	f8c4 a030 	str.w	sl, [r4, #48]	@ 0x30
 800445e:	e04e      	b.n	80044fe <dir_find+0xfa>
 8004460:	2b0f      	cmp	r3, #15
 8004462:	d154      	bne.n	800450e <dir_find+0x10a>
 8004464:	f894 302f 	ldrb.w	r3, [r4, #47]	@ 0x2f
 8004468:	0659      	lsls	r1, r3, #25
 800446a:	d43e      	bmi.n	80044ea <dir_find+0xe6>
 800446c:	067a      	lsls	r2, r7, #25
 800446e:	d544      	bpl.n	80044fa <dir_find+0xf6>
 8004470:	6963      	ldr	r3, [r4, #20]
 8004472:	f895 800d 	ldrb.w	r8, [r5, #13]
 8004476:	6323      	str	r3, [r4, #48]	@ 0x30
 8004478:	f007 07bf 	and.w	r7, r7, #191	@ 0xbf
 800447c:	7b6b      	ldrb	r3, [r5, #13]
 800447e:	4543      	cmp	r3, r8
 8004480:	d13d      	bne.n	80044fe <dir_find+0xfa>
 8004482:	8b6b      	ldrh	r3, [r5, #26]
 8004484:	2b00      	cmp	r3, #0
 8004486:	d13a      	bne.n	80044fe <dir_find+0xfa>
 8004488:	782e      	ldrb	r6, [r5, #0]
 800448a:	9b00      	ldr	r3, [sp, #0]
 800448c:	f8df 90cc 	ldr.w	r9, [pc, #204]	@ 800455c <dir_find+0x158>
 8004490:	f8d3 b010 	ldr.w	fp, [r3, #16]
 8004494:	f006 063f 	and.w	r6, r6, #63	@ 0x3f
 8004498:	3e01      	subs	r6, #1
 800449a:	230d      	movs	r3, #13
 800449c:	435e      	muls	r6, r3
 800449e:	2201      	movs	r2, #1
 80044a0:	f819 3b01 	ldrb.w	r3, [r9], #1
 80044a4:	5aeb      	ldrh	r3, [r5, r3]
 80044a6:	b36a      	cbz	r2, 8004504 <dir_find+0x100>
 80044a8:	2efe      	cmp	r6, #254	@ 0xfe
 80044aa:	d828      	bhi.n	80044fe <dir_find+0xfa>
 80044ac:	4618      	mov	r0, r3
 80044ae:	9303      	str	r3, [sp, #12]
 80044b0:	f000 fed0 	bl	8005254 <ff_wtoupper>
 80044b4:	1c71      	adds	r1, r6, #1
 80044b6:	9002      	str	r0, [sp, #8]
 80044b8:	f83b 0016 	ldrh.w	r0, [fp, r6, lsl #1]
 80044bc:	9101      	str	r1, [sp, #4]
 80044be:	f000 fec9 	bl	8005254 <ff_wtoupper>
 80044c2:	9a02      	ldr	r2, [sp, #8]
 80044c4:	4282      	cmp	r2, r0
 80044c6:	d11a      	bne.n	80044fe <dir_find+0xfa>
 80044c8:	9b03      	ldr	r3, [sp, #12]
 80044ca:	9901      	ldr	r1, [sp, #4]
 80044cc:	461a      	mov	r2, r3
 80044ce:	460e      	mov	r6, r1
 80044d0:	4b21      	ldr	r3, [pc, #132]	@ (8004558 <dir_find+0x154>)
 80044d2:	454b      	cmp	r3, r9
 80044d4:	d1e4      	bne.n	80044a0 <dir_find+0x9c>
 80044d6:	782b      	ldrb	r3, [r5, #0]
 80044d8:	065b      	lsls	r3, r3, #25
 80044da:	d503      	bpl.n	80044e4 <dir_find+0xe0>
 80044dc:	b112      	cbz	r2, 80044e4 <dir_find+0xe0>
 80044de:	f83b 3016 	ldrh.w	r3, [fp, r6, lsl #1]
 80044e2:	b963      	cbnz	r3, 80044fe <dir_find+0xfa>
 80044e4:	3f01      	subs	r7, #1
 80044e6:	fa5f f987 	uxtb.w	r9, r7
 80044ea:	2100      	movs	r1, #0
 80044ec:	4620      	mov	r0, r4
 80044ee:	f7ff fec9 	bl	8004284 <dir_next>
 80044f2:	4606      	mov	r6, r0
 80044f4:	2800      	cmp	r0, #0
 80044f6:	d099      	beq.n	800442c <dir_find+0x28>
 80044f8:	e027      	b.n	800454a <dir_find+0x146>
 80044fa:	45b9      	cmp	r9, r7
 80044fc:	d0be      	beq.n	800447c <dir_find+0x78>
 80044fe:	f04f 09ff 	mov.w	r9, #255	@ 0xff
 8004502:	e7f2      	b.n	80044ea <dir_find+0xe6>
 8004504:	f64f 71ff 	movw	r1, #65535	@ 0xffff
 8004508:	428b      	cmp	r3, r1
 800450a:	d0e1      	beq.n	80044d0 <dir_find+0xcc>
 800450c:	e7f7      	b.n	80044fe <dir_find+0xfa>
 800450e:	f1b9 0f00 	cmp.w	r9, #0
 8004512:	d104      	bne.n	800451e <dir_find+0x11a>
 8004514:	4628      	mov	r0, r5
 8004516:	f7ff fac1 	bl	8003a9c <sum_sfn>
 800451a:	4540      	cmp	r0, r8
 800451c:	d015      	beq.n	800454a <dir_find+0x146>
 800451e:	f894 602f 	ldrb.w	r6, [r4, #47]	@ 0x2f
 8004522:	f016 0601 	ands.w	r6, r6, #1
 8004526:	d198      	bne.n	800445a <dir_find+0x56>
 8004528:	f104 0224 	add.w	r2, r4, #36	@ 0x24
 800452c:	f105 010b 	add.w	r1, r5, #11
 8004530:	f815 3b01 	ldrb.w	r3, [r5], #1
 8004534:	f812 0b01 	ldrb.w	r0, [r2], #1
 8004538:	428d      	cmp	r5, r1
 800453a:	eba3 0300 	sub.w	r3, r3, r0
 800453e:	d002      	beq.n	8004546 <dir_find+0x142>
 8004540:	2b00      	cmp	r3, #0
 8004542:	d0f5      	beq.n	8004530 <dir_find+0x12c>
 8004544:	e789      	b.n	800445a <dir_find+0x56>
 8004546:	2b00      	cmp	r3, #0
 8004548:	d187      	bne.n	800445a <dir_find+0x56>
 800454a:	4630      	mov	r0, r6
 800454c:	b005      	add	sp, #20
 800454e:	e8bd 8ff0 	ldmia.w	sp!, {r4, r5, r6, r7, r8, r9, sl, fp, pc}
 8004552:	2604      	movs	r6, #4
 8004554:	e7f9      	b.n	800454a <dir_find+0x146>
 8004556:	bf00      	nop
 8004558:	08005d37 	.word	0x08005d37
 800455c:	08005d2a 	.word	0x08005d2a

08004560 <dir_register>:
 8004560:	e92d 4ff0 	stmdb	sp!, {r4, r5, r6, r7, r8, r9, sl, fp, lr}
 8004564:	f890 402f 	ldrb.w	r4, [r0, #47]	@ 0x2f
 8004568:	f014 04a0 	ands.w	r4, r4, #160	@ 0xa0
 800456c:	b089      	sub	sp, #36	@ 0x24
 800456e:	4605      	mov	r5, r0
 8004570:	f040 8135 	bne.w	80047de <dir_register+0x27e>
 8004574:	6806      	ldr	r6, [r0, #0]
 8004576:	6932      	ldr	r2, [r6, #16]
 8004578:	f832 3014 	ldrh.w	r3, [r2, r4, lsl #1]
 800457c:	2b00      	cmp	r3, #0
 800457e:	d169      	bne.n	8004654 <dir_register+0xf4>
 8004580:	f105 0724 	add.w	r7, r5, #36	@ 0x24
 8004584:	220c      	movs	r2, #12
 8004586:	4639      	mov	r1, r7
 8004588:	a805      	add	r0, sp, #20
 800458a:	f7ff faed 	bl	8003b68 <mem_cpy.part.0>
 800458e:	f89d b01f 	ldrb.w	fp, [sp, #31]
 8004592:	f01b 0f01 	tst.w	fp, #1
 8004596:	d078      	beq.n	800468a <dir_register+0x12a>
 8004598:	2340      	movs	r3, #64	@ 0x40
 800459a:	f8df a248 	ldr.w	sl, [pc, #584]	@ 80047e4 <dir_register+0x284>
 800459e:	f885 302f 	strb.w	r3, [r5, #47]	@ 0x2f
 80045a2:	f04f 0801 	mov.w	r8, #1
 80045a6:	220b      	movs	r2, #11
 80045a8:	a905      	add	r1, sp, #20
 80045aa:	4638      	mov	r0, r7
 80045ac:	f8d6 9010 	ldr.w	r9, [r6, #16]
 80045b0:	f7ff fada 	bl	8003b68 <mem_cpy.part.0>
 80045b4:	f1b8 0f05 	cmp.w	r8, #5
 80045b8:	d95d      	bls.n	8004676 <dir_register+0x116>
 80045ba:	f1a9 0102 	sub.w	r1, r9, #2
 80045be:	4643      	mov	r3, r8
 80045c0:	f831 2f02 	ldrh.w	r2, [r1, #2]!
 80045c4:	2a00      	cmp	r2, #0
 80045c6:	d147      	bne.n	8004658 <dir_register+0xf8>
 80045c8:	a805      	add	r0, sp, #20
 80045ca:	2207      	movs	r2, #7
 80045cc:	f003 0c0f 	and.w	ip, r3, #15
 80045d0:	f10c 0130 	add.w	r1, ip, #48	@ 0x30
 80045d4:	2939      	cmp	r1, #57	@ 0x39
 80045d6:	bf88      	it	hi
 80045d8:	f10c 0137 	addhi.w	r1, ip, #55	@ 0x37
 80045dc:	2b0f      	cmp	r3, #15
 80045de:	f800 1d01 	strb.w	r1, [r0, #-1]!
 80045e2:	f102 32ff 	add.w	r2, r2, #4294967295
 80045e6:	ea4f 1113 	mov.w	r1, r3, lsr #4
 80045ea:	d846      	bhi.n	800467a <dir_register+0x11a>
 80045ec:	f102 0320 	add.w	r3, r2, #32
 80045f0:	446b      	add	r3, sp
 80045f2:	217e      	movs	r1, #126	@ 0x7e
 80045f4:	f803 1c14 	strb.w	r1, [r3, #-20]
 80045f8:	f105 0123 	add.w	r1, r5, #35	@ 0x23
 80045fc:	4608      	mov	r0, r1
 80045fe:	2300      	movs	r3, #0
 8004600:	429a      	cmp	r2, r3
 8004602:	d006      	beq.n	8004612 <dir_register+0xb2>
 8004604:	f810 cf01 	ldrb.w	ip, [r0, #1]!
 8004608:	f1bc 0f20 	cmp.w	ip, #32
 800460c:	f103 0e01 	add.w	lr, r3, #1
 8004610:	d135      	bne.n	800467e <dir_register+0x11e>
 8004612:	2a07      	cmp	r2, #7
 8004614:	bf9e      	ittt	ls
 8004616:	f102 0018 	addls.w	r0, r2, #24
 800461a:	f102 0020 	addls.w	r0, r2, #32
 800461e:	4468      	addls	r0, sp
 8004620:	f103 0301 	add.w	r3, r3, #1
 8004624:	bf96      	itet	ls
 8004626:	f810 0c14 	ldrbls.w	r0, [r0, #-20]
 800462a:	2020      	movhi	r0, #32
 800462c:	3201      	addls	r2, #1
 800462e:	2b07      	cmp	r3, #7
 8004630:	54c8      	strb	r0, [r1, r3]
 8004632:	d9ee      	bls.n	8004612 <dir_register+0xb2>
 8004634:	4628      	mov	r0, r5
 8004636:	f7ff fee5 	bl	8004404 <dir_find>
 800463a:	4681      	mov	r9, r0
 800463c:	bb08      	cbnz	r0, 8004682 <dir_register+0x122>
 800463e:	f108 0801 	add.w	r8, r8, #1
 8004642:	f1b8 0f64 	cmp.w	r8, #100	@ 0x64
 8004646:	d1ae      	bne.n	80045a6 <dir_register+0x46>
 8004648:	f04f 0907 	mov.w	r9, #7
 800464c:	4648      	mov	r0, r9
 800464e:	b009      	add	sp, #36	@ 0x24
 8004650:	e8bd 8ff0 	ldmia.w	sp!, {r4, r5, r6, r7, r8, r9, sl, fp, pc}
 8004654:	3401      	adds	r4, #1
 8004656:	e78f      	b.n	8004578 <dir_register+0x18>
 8004658:	2010      	movs	r0, #16
 800465a:	f002 0c01 	and.w	ip, r2, #1
 800465e:	eb0c 0343 	add.w	r3, ip, r3, lsl #1
 8004662:	f413 3f80 	tst.w	r3, #65536	@ 0x10000
 8004666:	bf18      	it	ne
 8004668:	ea83 030a 	eorne.w	r3, r3, sl
 800466c:	3801      	subs	r0, #1
 800466e:	ea4f 0252 	mov.w	r2, r2, lsr #1
 8004672:	d1f2      	bne.n	800465a <dir_register+0xfa>
 8004674:	e7a4      	b.n	80045c0 <dir_register+0x60>
 8004676:	4643      	mov	r3, r8
 8004678:	e7a6      	b.n	80045c8 <dir_register+0x68>
 800467a:	460b      	mov	r3, r1
 800467c:	e7a6      	b.n	80045cc <dir_register+0x6c>
 800467e:	4673      	mov	r3, lr
 8004680:	e7be      	b.n	8004600 <dir_register+0xa0>
 8004682:	2804      	cmp	r0, #4
 8004684:	d1e2      	bne.n	800464c <dir_register+0xec>
 8004686:	f885 b02f 	strb.w	fp, [r5, #47]	@ 0x2f
 800468a:	f01b 0f02 	tst.w	fp, #2
 800468e:	bf18      	it	ne
 8004690:	340c      	addne	r4, #12
 8004692:	f04f 0100 	mov.w	r1, #0
 8004696:	4628      	mov	r0, r5
 8004698:	bf18      	it	ne
 800469a:	230d      	movne	r3, #13
 800469c:	f8d5 a000 	ldr.w	sl, [r5]
 80046a0:	bf16      	itet	ne
 80046a2:	fbb4 f4f3 	udivne	r4, r4, r3
 80046a6:	2401      	moveq	r4, #1
 80046a8:	3401      	addne	r4, #1
 80046aa:	f7ff fe67 	bl	800437c <dir_sdi>
 80046ae:	4681      	mov	r9, r0
 80046b0:	2800      	cmp	r0, #0
 80046b2:	f040 808f 	bne.w	80047d4 <dir_register+0x274>
 80046b6:	4680      	mov	r8, r0
 80046b8:	69e9      	ldr	r1, [r5, #28]
 80046ba:	4650      	mov	r0, sl
 80046bc:	f7ff fa69 	bl	8003b92 <move_window>
 80046c0:	4681      	mov	r9, r0
 80046c2:	2800      	cmp	r0, #0
 80046c4:	f040 8086 	bne.w	80047d4 <dir_register+0x274>
 80046c8:	6a2b      	ldr	r3, [r5, #32]
 80046ca:	781b      	ldrb	r3, [r3, #0]
 80046cc:	2be5      	cmp	r3, #229	@ 0xe5
 80046ce:	d001      	beq.n	80046d4 <dir_register+0x174>
 80046d0:	2b00      	cmp	r3, #0
 80046d2:	d176      	bne.n	80047c2 <dir_register+0x262>
 80046d4:	f108 0801 	add.w	r8, r8, #1
 80046d8:	4544      	cmp	r4, r8
 80046da:	d173      	bne.n	80047c4 <dir_register+0x264>
 80046dc:	3c01      	subs	r4, #1
 80046de:	d055      	beq.n	800478c <dir_register+0x22c>
 80046e0:	6969      	ldr	r1, [r5, #20]
 80046e2:	4628      	mov	r0, r5
 80046e4:	eba1 1144 	sub.w	r1, r1, r4, lsl #5
 80046e8:	f7ff fe48 	bl	800437c <dir_sdi>
 80046ec:	4681      	mov	r9, r0
 80046ee:	2800      	cmp	r0, #0
 80046f0:	d1ac      	bne.n	800464c <dir_register+0xec>
 80046f2:	4638      	mov	r0, r7
 80046f4:	f7ff f9d2 	bl	8003a9c <sum_sfn>
 80046f8:	f64f 78ff 	movw	r8, #65535	@ 0xffff
 80046fc:	9001      	str	r0, [sp, #4]
 80046fe:	69e9      	ldr	r1, [r5, #28]
 8004700:	4630      	mov	r0, r6
 8004702:	f7ff fa46 	bl	8003b92 <move_window>
 8004706:	4681      	mov	r9, r0
 8004708:	2800      	cmp	r0, #0
 800470a:	d19f      	bne.n	800464c <dir_register+0xec>
 800470c:	6a2b      	ldr	r3, [r5, #32]
 800470e:	9a01      	ldr	r2, [sp, #4]
 8004710:	f8d6 e010 	ldr.w	lr, [r6, #16]
 8004714:	735a      	strb	r2, [r3, #13]
 8004716:	b2e1      	uxtb	r1, r4
 8004718:	f04f 020f 	mov.w	r2, #15
 800471c:	f04f 0c0d 	mov.w	ip, #13
 8004720:	72da      	strb	r2, [r3, #11]
 8004722:	f8df a0c4 	ldr.w	sl, [pc, #196]	@ 80047e8 <dir_register+0x288>
 8004726:	7318      	strb	r0, [r3, #12]
 8004728:	1e4a      	subs	r2, r1, #1
 800472a:	fb0c f202 	mul.w	r2, ip, r2
 800472e:	7698      	strb	r0, [r3, #26]
 8004730:	76d8      	strb	r0, [r3, #27]
 8004732:	4684      	mov	ip, r0
 8004734:	f81a 9b01 	ldrb.w	r9, [sl], #1
 8004738:	4540      	cmp	r0, r8
 800473a:	bf18      	it	ne
 800473c:	f83e 0012 	ldrhne.w	r0, [lr, r2, lsl #1]
 8004740:	f803 0009 	strb.w	r0, [r3, r9]
 8004744:	eb03 0b09 	add.w	fp, r3, r9
 8004748:	f10c 0c01 	add.w	ip, ip, #1
 800474c:	bf18      	it	ne
 800474e:	3201      	addne	r2, #1
 8004750:	ea4f 2910 	mov.w	r9, r0, lsr #8
 8004754:	2800      	cmp	r0, #0
 8004756:	bf08      	it	eq
 8004758:	4640      	moveq	r0, r8
 800475a:	f1bc 0f0d 	cmp.w	ip, #13
 800475e:	f88b 9001 	strb.w	r9, [fp, #1]
 8004762:	d1e7      	bne.n	8004734 <dir_register+0x1d4>
 8004764:	4540      	cmp	r0, r8
 8004766:	d002      	beq.n	800476e <dir_register+0x20e>
 8004768:	f83e 2012 	ldrh.w	r2, [lr, r2, lsl #1]
 800476c:	b90a      	cbnz	r2, 8004772 <dir_register+0x212>
 800476e:	f041 0140 	orr.w	r1, r1, #64	@ 0x40
 8004772:	7019      	strb	r1, [r3, #0]
 8004774:	2301      	movs	r3, #1
 8004776:	70f3      	strb	r3, [r6, #3]
 8004778:	2100      	movs	r1, #0
 800477a:	4628      	mov	r0, r5
 800477c:	f7ff fd82 	bl	8004284 <dir_next>
 8004780:	4681      	mov	r9, r0
 8004782:	2800      	cmp	r0, #0
 8004784:	f47f af62 	bne.w	800464c <dir_register+0xec>
 8004788:	3c01      	subs	r4, #1
 800478a:	d1b8      	bne.n	80046fe <dir_register+0x19e>
 800478c:	69e9      	ldr	r1, [r5, #28]
 800478e:	4630      	mov	r0, r6
 8004790:	f7ff f9ff 	bl	8003b92 <move_window>
 8004794:	4681      	mov	r9, r0
 8004796:	2800      	cmp	r0, #0
 8004798:	f47f af58 	bne.w	800464c <dir_register+0xec>
 800479c:	4601      	mov	r1, r0
 800479e:	2220      	movs	r2, #32
 80047a0:	6a28      	ldr	r0, [r5, #32]
 80047a2:	f7ff f8af 	bl	8003904 <mem_set>
 80047a6:	220b      	movs	r2, #11
 80047a8:	6a28      	ldr	r0, [r5, #32]
 80047aa:	4639      	mov	r1, r7
 80047ac:	f7ff f9dc 	bl	8003b68 <mem_cpy.part.0>
 80047b0:	f895 302f 	ldrb.w	r3, [r5, #47]	@ 0x2f
 80047b4:	6a2a      	ldr	r2, [r5, #32]
 80047b6:	f003 0318 	and.w	r3, r3, #24
 80047ba:	7313      	strb	r3, [r2, #12]
 80047bc:	2301      	movs	r3, #1
 80047be:	70f3      	strb	r3, [r6, #3]
 80047c0:	e744      	b.n	800464c <dir_register+0xec>
 80047c2:	4680      	mov	r8, r0
 80047c4:	2101      	movs	r1, #1
 80047c6:	4628      	mov	r0, r5
 80047c8:	f7ff fd5c 	bl	8004284 <dir_next>
 80047cc:	4681      	mov	r9, r0
 80047ce:	2800      	cmp	r0, #0
 80047d0:	f43f af72 	beq.w	80046b8 <dir_register+0x158>
 80047d4:	f1b9 0f04 	cmp.w	r9, #4
 80047d8:	f43f af36 	beq.w	8004648 <dir_register+0xe8>
 80047dc:	e736      	b.n	800464c <dir_register+0xec>
 80047de:	f04f 0906 	mov.w	r9, #6
 80047e2:	e733      	b.n	800464c <dir_register+0xec>
 80047e4:	00011021 	.word	0x00011021
 80047e8:	08005d2a 	.word	0x08005d2a

080047ec <follow_path>:
 80047ec:	e92d 4ff7 	stmdb	sp!, {r0, r1, r2, r4, r5, r6, r7, r8, r9, sl, fp, lr}
 80047f0:	f8d0 a000 	ldr.w	sl, [r0]
 80047f4:	4606      	mov	r6, r0
 80047f6:	4688      	mov	r8, r1
 80047f8:	f811 3b01 	ldrb.w	r3, [r1], #1
 80047fc:	2b2f      	cmp	r3, #47	@ 0x2f
 80047fe:	d0fa      	beq.n	80047f6 <follow_path+0xa>
 8004800:	2b5c      	cmp	r3, #92	@ 0x5c
 8004802:	d0f8      	beq.n	80047f6 <follow_path+0xa>
 8004804:	2300      	movs	r3, #0
 8004806:	60b3      	str	r3, [r6, #8]
 8004808:	f898 3000 	ldrb.w	r3, [r8]
 800480c:	2b1f      	cmp	r3, #31
 800480e:	f200 80b6 	bhi.w	800497e <follow_path+0x192>
 8004812:	2380      	movs	r3, #128	@ 0x80
 8004814:	2100      	movs	r1, #0
 8004816:	4630      	mov	r0, r6
 8004818:	f886 302f 	strb.w	r3, [r6, #47]	@ 0x2f
 800481c:	b003      	add	sp, #12
 800481e:	e8bd 4ff0 	ldmia.w	sp!, {r4, r5, r6, r7, r8, r9, sl, fp, lr}
 8004822:	f7ff bdab 	b.w	800437c <dir_sdi>
 8004826:	3501      	adds	r5, #1
 8004828:	e0bd      	b.n	80049a6 <follow_path+0x1ba>
 800482a:	f5b5 7f80 	cmp.w	r5, #256	@ 0x100
 800482e:	e9cd 2300 	strd	r2, r3, [sp]
 8004832:	d00e      	beq.n	8004852 <follow_path+0x66>
 8004834:	2101      	movs	r1, #1
 8004836:	4620      	mov	r0, r4
 8004838:	f000 fcf0 	bl	800521c <ff_convert>
 800483c:	b148      	cbz	r0, 8004852 <follow_path+0x66>
 800483e:	287f      	cmp	r0, #127	@ 0x7f
 8004840:	e9dd 2300 	ldrd	r2, r3, [sp]
 8004844:	d807      	bhi.n	8004856 <follow_path+0x6a>
 8004846:	4c82      	ldr	r4, [pc, #520]	@ (8004a50 <follow_path+0x264>)
 8004848:	f814 1b01 	ldrb.w	r1, [r4], #1
 800484c:	b119      	cbz	r1, 8004856 <follow_path+0x6a>
 800484e:	4288      	cmp	r0, r1
 8004850:	d1fa      	bne.n	8004848 <follow_path+0x5c>
 8004852:	2006      	movs	r0, #6
 8004854:	e04a      	b.n	80048ec <follow_path+0x100>
 8004856:	f823 0f02 	strh.w	r0, [r3, #2]!
 800485a:	462f      	mov	r7, r5
 800485c:	e098      	b.n	8004990 <follow_path+0x1a4>
 800485e:	f83b 3017 	ldrh.w	r3, [fp, r7, lsl #1]
 8004862:	2b20      	cmp	r3, #32
 8004864:	d002      	beq.n	800486c <follow_path+0x80>
 8004866:	2b2e      	cmp	r3, #46	@ 0x2e
 8004868:	f040 80a9 	bne.w	80049be <follow_path+0x1d2>
 800486c:	3f01      	subs	r7, #1
 800486e:	e0a3      	b.n	80049b8 <follow_path+0x1cc>
 8004870:	3101      	adds	r1, #1
 8004872:	e0b2      	b.n	80049da <follow_path+0x1ee>
 8004874:	459b      	cmp	fp, r3
 8004876:	d204      	bcs.n	8004882 <follow_path+0x96>
 8004878:	42ba      	cmp	r2, r7
 800487a:	d146      	bne.n	800490a <follow_path+0x11e>
 800487c:	2b0b      	cmp	r3, #11
 800487e:	d13d      	bne.n	80048fc <follow_path+0x110>
 8004880:	e001      	b.n	8004886 <follow_path+0x9a>
 8004882:	2b0b      	cmp	r3, #11
 8004884:	d135      	bne.n	80048f2 <follow_path+0x106>
 8004886:	f044 0403 	orr.w	r4, r4, #3
 800488a:	230b      	movs	r3, #11
 800488c:	f896 2024 	ldrb.w	r2, [r6, #36]	@ 0x24
 8004890:	2ae5      	cmp	r2, #229	@ 0xe5
 8004892:	bf04      	itt	eq
 8004894:	2205      	moveq	r2, #5
 8004896:	f886 2024 	strbeq.w	r2, [r6, #36]	@ 0x24
 800489a:	2b08      	cmp	r3, #8
 800489c:	bf04      	itt	eq
 800489e:	00ad      	lsleq	r5, r5, #2
 80048a0:	b2ed      	uxtbeq	r5, r5
 80048a2:	f005 030c 	and.w	r3, r5, #12
 80048a6:	2b0c      	cmp	r3, #12
 80048a8:	d003      	beq.n	80048b2 <follow_path+0xc6>
 80048aa:	f005 0203 	and.w	r2, r5, #3
 80048ae:	2a03      	cmp	r2, #3
 80048b0:	d101      	bne.n	80048b6 <follow_path+0xca>
 80048b2:	f044 0402 	orr.w	r4, r4, #2
 80048b6:	07a1      	lsls	r1, r4, #30
 80048b8:	d409      	bmi.n	80048ce <follow_path+0xe2>
 80048ba:	f005 0503 	and.w	r5, r5, #3
 80048be:	2d01      	cmp	r5, #1
 80048c0:	bf08      	it	eq
 80048c2:	f044 0410 	orreq.w	r4, r4, #16
 80048c6:	2b04      	cmp	r3, #4
 80048c8:	bf08      	it	eq
 80048ca:	f044 0408 	orreq.w	r4, r4, #8
 80048ce:	f886 402f 	strb.w	r4, [r6, #47]	@ 0x2f
 80048d2:	4630      	mov	r0, r6
 80048d4:	f7ff fd96 	bl	8004404 <dir_find>
 80048d8:	f896 302f 	ldrb.w	r3, [r6, #47]	@ 0x2f
 80048dc:	2800      	cmp	r0, #0
 80048de:	d03a      	beq.n	8004956 <follow_path+0x16a>
 80048e0:	2804      	cmp	r0, #4
 80048e2:	d103      	bne.n	80048ec <follow_path+0x100>
 80048e4:	f013 0f04 	tst.w	r3, #4
 80048e8:	bf08      	it	eq
 80048ea:	2005      	moveq	r0, #5
 80048ec:	b003      	add	sp, #12
 80048ee:	e8bd 8ff0 	ldmia.w	sp!, {r4, r5, r6, r7, r8, r9, sl, fp, pc}
 80048f2:	42ba      	cmp	r2, r7
 80048f4:	d002      	beq.n	80048fc <follow_path+0x110>
 80048f6:	f044 0403 	orr.w	r4, r4, #3
 80048fa:	d8c7      	bhi.n	800488c <follow_path+0xa0>
 80048fc:	00ad      	lsls	r5, r5, #2
 80048fe:	b2ed      	uxtb	r5, r5
 8004900:	463a      	mov	r2, r7
 8004902:	230b      	movs	r3, #11
 8004904:	f04f 0b08 	mov.w	fp, #8
 8004908:	e091      	b.n	8004a2e <follow_path+0x242>
 800490a:	287f      	cmp	r0, #127	@ 0x7f
 800490c:	d90e      	bls.n	800492c <follow_path+0x140>
 800490e:	2100      	movs	r1, #0
 8004910:	e9cd 2300 	strd	r2, r3, [sp]
 8004914:	f000 fc82 	bl	800521c <ff_convert>
 8004918:	f044 0402 	orr.w	r4, r4, #2
 800491c:	e9dd 2300 	ldrd	r2, r3, [sp]
 8004920:	b160      	cbz	r0, 800493c <follow_path+0x150>
 8004922:	494c      	ldr	r1, [pc, #304]	@ (8004a54 <follow_path+0x268>)
 8004924:	4401      	add	r1, r0
 8004926:	f811 0c80 	ldrb.w	r0, [r1, #-128]
 800492a:	b138      	cbz	r0, 800493c <follow_path+0x150>
 800492c:	f8df c128 	ldr.w	ip, [pc, #296]	@ 8004a58 <follow_path+0x26c>
 8004930:	f81c 1b01 	ldrb.w	r1, [ip], #1
 8004934:	2900      	cmp	r1, #0
 8004936:	d07e      	beq.n	8004a36 <follow_path+0x24a>
 8004938:	4281      	cmp	r1, r0
 800493a:	d1f9      	bne.n	8004930 <follow_path+0x144>
 800493c:	f044 0403 	orr.w	r4, r4, #3
 8004940:	205f      	movs	r0, #95	@ 0x5f
 8004942:	eb06 010b 	add.w	r1, r6, fp
 8004946:	f10b 0b01 	add.w	fp, fp, #1
 800494a:	f881 0024 	strb.w	r0, [r1, #36]	@ 0x24
 800494e:	e06e      	b.n	8004a2e <follow_path+0x242>
 8004950:	f045 0502 	orr.w	r5, r5, #2
 8004954:	e7f5      	b.n	8004942 <follow_path+0x156>
 8004956:	075a      	lsls	r2, r3, #29
 8004958:	d4c8      	bmi.n	80048ec <follow_path+0x100>
 800495a:	79b3      	ldrb	r3, [r6, #6]
 800495c:	06db      	lsls	r3, r3, #27
 800495e:	d568      	bpl.n	8004a32 <follow_path+0x246>
 8004960:	f8ba 200c 	ldrh.w	r2, [sl, #12]
 8004964:	6973      	ldr	r3, [r6, #20]
 8004966:	fbb3 f0f2 	udiv	r0, r3, r2
 800496a:	f10a 0138 	add.w	r1, sl, #56	@ 0x38
 800496e:	fb02 3310 	mls	r3, r2, r0, r3
 8004972:	4419      	add	r1, r3
 8004974:	f89a 0000 	ldrb.w	r0, [sl]
 8004978:	f7ff fb82 	bl	8004080 <ld_clust.isra.0>
 800497c:	60b0      	str	r0, [r6, #8]
 800497e:	6833      	ldr	r3, [r6, #0]
 8004980:	f8d3 9010 	ldr.w	r9, [r3, #16]
 8004984:	f1a9 0b02 	sub.w	fp, r9, #2
 8004988:	f108 32ff 	add.w	r2, r8, #4294967295
 800498c:	465b      	mov	r3, fp
 800498e:	2700      	movs	r7, #0
 8004990:	f812 4f01 	ldrb.w	r4, [r2, #1]!
 8004994:	2c1f      	cmp	r4, #31
 8004996:	f107 0501 	add.w	r5, r7, #1
 800499a:	d90c      	bls.n	80049b6 <follow_path+0x1ca>
 800499c:	2c2f      	cmp	r4, #47	@ 0x2f
 800499e:	d002      	beq.n	80049a6 <follow_path+0x1ba>
 80049a0:	2c5c      	cmp	r4, #92	@ 0x5c
 80049a2:	f47f af42 	bne.w	800482a <follow_path+0x3e>
 80049a6:	f818 3005 	ldrb.w	r3, [r8, r5]
 80049aa:	2b2f      	cmp	r3, #47	@ 0x2f
 80049ac:	f43f af3b 	beq.w	8004826 <follow_path+0x3a>
 80049b0:	2b5c      	cmp	r3, #92	@ 0x5c
 80049b2:	f43f af38 	beq.w	8004826 <follow_path+0x3a>
 80049b6:	44a8      	add	r8, r5
 80049b8:	2f00      	cmp	r7, #0
 80049ba:	f47f af50 	bne.w	800485e <follow_path+0x72>
 80049be:	f04f 0300 	mov.w	r3, #0
 80049c2:	f829 3017 	strh.w	r3, [r9, r7, lsl #1]
 80049c6:	2f00      	cmp	r7, #0
 80049c8:	f43f af43 	beq.w	8004852 <follow_path+0x66>
 80049cc:	2120      	movs	r1, #32
 80049ce:	220b      	movs	r2, #11
 80049d0:	f106 0024 	add.w	r0, r6, #36	@ 0x24
 80049d4:	f7fe ff96 	bl	8003904 <mem_set>
 80049d8:	2100      	movs	r1, #0
 80049da:	f839 3011 	ldrh.w	r3, [r9, r1, lsl #1]
 80049de:	2b20      	cmp	r3, #32
 80049e0:	f43f af46 	beq.w	8004870 <follow_path+0x84>
 80049e4:	2b2e      	cmp	r3, #46	@ 0x2e
 80049e6:	f43f af43 	beq.w	8004870 <follow_path+0x84>
 80049ea:	2c1f      	cmp	r4, #31
 80049ec:	bf8c      	ite	hi
 80049ee:	2400      	movhi	r4, #0
 80049f0:	2401      	movls	r4, #1
 80049f2:	00a4      	lsls	r4, r4, #2
 80049f4:	b109      	cbz	r1, 80049fa <follow_path+0x20e>
 80049f6:	f044 0403 	orr.w	r4, r4, #3
 80049fa:	f83b 3017 	ldrh.w	r3, [fp, r7, lsl #1]
 80049fe:	2b2e      	cmp	r3, #46	@ 0x2e
 8004a00:	d001      	beq.n	8004a06 <follow_path+0x21a>
 8004a02:	3f01      	subs	r7, #1
 8004a04:	d1f9      	bne.n	80049fa <follow_path+0x20e>
 8004a06:	f04f 0b00 	mov.w	fp, #0
 8004a0a:	2308      	movs	r3, #8
 8004a0c:	465d      	mov	r5, fp
 8004a0e:	f839 0011 	ldrh.w	r0, [r9, r1, lsl #1]
 8004a12:	1c4a      	adds	r2, r1, #1
 8004a14:	2800      	cmp	r0, #0
 8004a16:	f43f af39 	beq.w	800488c <follow_path+0xa0>
 8004a1a:	2820      	cmp	r0, #32
 8004a1c:	d005      	beq.n	8004a2a <follow_path+0x23e>
 8004a1e:	282e      	cmp	r0, #46	@ 0x2e
 8004a20:	f47f af28 	bne.w	8004874 <follow_path+0x88>
 8004a24:	42ba      	cmp	r2, r7
 8004a26:	f43f af25 	beq.w	8004874 <follow_path+0x88>
 8004a2a:	f044 0403 	orr.w	r4, r4, #3
 8004a2e:	4611      	mov	r1, r2
 8004a30:	e7ed      	b.n	8004a0e <follow_path+0x222>
 8004a32:	2005      	movs	r0, #5
 8004a34:	e75a      	b.n	80048ec <follow_path+0x100>
 8004a36:	f1a0 0141 	sub.w	r1, r0, #65	@ 0x41
 8004a3a:	2919      	cmp	r1, #25
 8004a3c:	d988      	bls.n	8004950 <follow_path+0x164>
 8004a3e:	f1a0 0161 	sub.w	r1, r0, #97	@ 0x61
 8004a42:	2919      	cmp	r1, #25
 8004a44:	bf9e      	ittt	ls
 8004a46:	3820      	subls	r0, #32
 8004a48:	f045 0501 	orrls.w	r5, r5, #1
 8004a4c:	b280      	uxthls	r0, r0
 8004a4e:	e778      	b.n	8004942 <follow_path+0x156>
 8004a50:	08005d1a 	.word	0x08005d1a
 8004a54:	08005d37 	.word	0x08005d37
 8004a58:	08005d23 	.word	0x08005d23

08004a5c <f_mount>:
 8004a5c:	b530      	push	{r4, r5, lr}
 8004a5e:	b085      	sub	sp, #20
 8004a60:	e9cd 1000 	strd	r1, r0, [sp]
 8004a64:	a803      	add	r0, sp, #12
 8004a66:	9103      	str	r1, [sp, #12]
 8004a68:	4614      	mov	r4, r2
 8004a6a:	f7ff f826 	bl	8003aba <get_ldnumber>
 8004a6e:	1e01      	subs	r1, r0, #0
 8004a70:	db19      	blt.n	8004aa6 <f_mount+0x4a>
 8004a72:	4d0e      	ldr	r5, [pc, #56]	@ (8004aac <f_mount+0x50>)
 8004a74:	f855 0021 	ldr.w	r0, [r5, r1, lsl #2]
 8004a78:	b118      	cbz	r0, 8004a82 <f_mount+0x26>
 8004a7a:	f7fe ffe3 	bl	8003a44 <clear_lock>
 8004a7e:	2300      	movs	r3, #0
 8004a80:	7003      	strb	r3, [r0, #0]
 8004a82:	9b01      	ldr	r3, [sp, #4]
 8004a84:	b923      	cbnz	r3, 8004a90 <f_mount+0x34>
 8004a86:	f845 3021 	str.w	r3, [r5, r1, lsl #2]
 8004a8a:	2000      	movs	r0, #0
 8004a8c:	b005      	add	sp, #20
 8004a8e:	bd30      	pop	{r4, r5, pc}
 8004a90:	2200      	movs	r2, #0
 8004a92:	2c01      	cmp	r4, #1
 8004a94:	f845 3021 	str.w	r3, [r5, r1, lsl #2]
 8004a98:	701a      	strb	r2, [r3, #0]
 8004a9a:	d1f6      	bne.n	8004a8a <f_mount+0x2e>
 8004a9c:	a901      	add	r1, sp, #4
 8004a9e:	4668      	mov	r0, sp
 8004aa0:	f7ff f8cc 	bl	8003c3c <find_volume>
 8004aa4:	e7f2      	b.n	8004a8c <f_mount+0x30>
 8004aa6:	200b      	movs	r0, #11
 8004aa8:	e7f0      	b.n	8004a8c <f_mount+0x30>
 8004aaa:	bf00      	nop
 8004aac:	200025b0 	.word	0x200025b0

08004ab0 <f_open>:
 8004ab0:	e92d 43f0 	stmdb	sp!, {r4, r5, r6, r7, r8, r9, lr}
 8004ab4:	b091      	sub	sp, #68	@ 0x44
 8004ab6:	4690      	mov	r8, r2
 8004ab8:	9101      	str	r1, [sp, #4]
 8004aba:	4604      	mov	r4, r0
 8004abc:	2800      	cmp	r0, #0
 8004abe:	f000 80f2 	beq.w	8004ca6 <f_open+0x1f6>
 8004ac2:	f002 063f 	and.w	r6, r2, #63	@ 0x3f
 8004ac6:	4632      	mov	r2, r6
 8004ac8:	a902      	add	r1, sp, #8
 8004aca:	a801      	add	r0, sp, #4
 8004acc:	f7ff f8b6 	bl	8003c3c <find_volume>
 8004ad0:	4607      	mov	r7, r0
 8004ad2:	2800      	cmp	r0, #0
 8004ad4:	d171      	bne.n	8004bba <f_open+0x10a>
 8004ad6:	9d02      	ldr	r5, [sp, #8]
 8004ad8:	9901      	ldr	r1, [sp, #4]
 8004ada:	9503      	str	r5, [sp, #12]
 8004adc:	a803      	add	r0, sp, #12
 8004ade:	f7ff fe85 	bl	80047ec <follow_path>
 8004ae2:	b958      	cbnz	r0, 8004afc <f_open+0x4c>
 8004ae4:	f99d 303b 	ldrsb.w	r3, [sp, #59]	@ 0x3b
 8004ae8:	2b00      	cmp	r3, #0
 8004aea:	db6d      	blt.n	8004bc8 <f_open+0x118>
 8004aec:	f018 0f3e 	tst.w	r8, #62	@ 0x3e
 8004af0:	bf14      	ite	ne
 8004af2:	2101      	movne	r1, #1
 8004af4:	2100      	moveq	r1, #0
 8004af6:	a803      	add	r0, sp, #12
 8004af8:	f7fe ff0a 	bl	8003910 <chk_lock>
 8004afc:	f018 0f1c 	tst.w	r8, #28
 8004b00:	d06e      	beq.n	8004be0 <f_open+0x130>
 8004b02:	2800      	cmp	r0, #0
 8004b04:	d062      	beq.n	8004bcc <f_open+0x11c>
 8004b06:	2804      	cmp	r0, #4
 8004b08:	d157      	bne.n	8004bba <f_open+0x10a>
 8004b0a:	4b68      	ldr	r3, [pc, #416]	@ (8004cac <f_open+0x1fc>)
 8004b0c:	681a      	ldr	r2, [r3, #0]
 8004b0e:	b11a      	cbz	r2, 8004b18 <f_open+0x68>
 8004b10:	691b      	ldr	r3, [r3, #16]
 8004b12:	2b00      	cmp	r3, #0
 8004b14:	f040 80c3 	bne.w	8004c9e <f_open+0x1ee>
 8004b18:	a803      	add	r0, sp, #12
 8004b1a:	f7ff fd21 	bl	8004560 <dir_register>
 8004b1e:	2800      	cmp	r0, #0
 8004b20:	d14b      	bne.n	8004bba <f_open+0x10a>
 8004b22:	f046 0608 	orr.w	r6, r6, #8
 8004b26:	0730      	lsls	r0, r6, #28
 8004b28:	f8dd 802c 	ldr.w	r8, [sp, #44]	@ 0x2c
 8004b2c:	d535      	bpl.n	8004b9a <f_open+0xea>
 8004b2e:	f7fe fe8b 	bl	8003848 <get_fattime>
 8004b32:	4602      	mov	r2, r0
 8004b34:	4601      	mov	r1, r0
 8004b36:	f108 000e 	add.w	r0, r8, #14
 8004b3a:	f7fe fedb 	bl	80038f4 <st_dword>
 8004b3e:	4611      	mov	r1, r2
 8004b40:	f108 0016 	add.w	r0, r8, #22
 8004b44:	f7fe fed6 	bl	80038f4 <st_dword>
 8004b48:	2320      	movs	r3, #32
 8004b4a:	f888 300b 	strb.w	r3, [r8, #11]
 8004b4e:	4641      	mov	r1, r8
 8004b50:	7828      	ldrb	r0, [r5, #0]
 8004b52:	f7ff fa95 	bl	8004080 <ld_clust.isra.0>
 8004b56:	2200      	movs	r2, #0
 8004b58:	4680      	mov	r8, r0
 8004b5a:	4628      	mov	r0, r5
 8004b5c:	f7ff f80d 	bl	8003b7a <st_clust>
 8004b60:	2200      	movs	r2, #0
 8004b62:	2301      	movs	r3, #1
 8004b64:	770a      	strb	r2, [r1, #28]
 8004b66:	774a      	strb	r2, [r1, #29]
 8004b68:	778a      	strb	r2, [r1, #30]
 8004b6a:	77ca      	strb	r2, [r1, #31]
 8004b6c:	70eb      	strb	r3, [r5, #3]
 8004b6e:	f1b8 0f00 	cmp.w	r8, #0
 8004b72:	d00e      	beq.n	8004b92 <f_open+0xe2>
 8004b74:	4641      	mov	r1, r8
 8004b76:	a803      	add	r0, sp, #12
 8004b78:	f8d5 9034 	ldr.w	r9, [r5, #52]	@ 0x34
 8004b7c:	f7ff faf3 	bl	8004166 <remove_chain>
 8004b80:	b9d8      	cbnz	r0, 8004bba <f_open+0x10a>
 8004b82:	4649      	mov	r1, r9
 8004b84:	4628      	mov	r0, r5
 8004b86:	f7ff f804 	bl	8003b92 <move_window>
 8004b8a:	f108 33ff 	add.w	r3, r8, #4294967295
 8004b8e:	616b      	str	r3, [r5, #20]
 8004b90:	b998      	cbnz	r0, 8004bba <f_open+0x10a>
 8004b92:	0730      	lsls	r0, r6, #28
 8004b94:	bf48      	it	mi
 8004b96:	f046 0640 	orrmi.w	r6, r6, #64	@ 0x40
 8004b9a:	6b6b      	ldr	r3, [r5, #52]	@ 0x34
 8004b9c:	f8dd 802c 	ldr.w	r8, [sp, #44]	@ 0x2c
 8004ba0:	6263      	str	r3, [r4, #36]	@ 0x24
 8004ba2:	2e01      	cmp	r6, #1
 8004ba4:	f8c4 8028 	str.w	r8, [r4, #40]	@ 0x28
 8004ba8:	bf94      	ite	ls
 8004baa:	2100      	movls	r1, #0
 8004bac:	2101      	movhi	r1, #1
 8004bae:	a803      	add	r0, sp, #12
 8004bb0:	f7fe fee8 	bl	8003984 <inc_lock>
 8004bb4:	6120      	str	r0, [r4, #16]
 8004bb6:	bb00      	cbnz	r0, 8004bfa <f_open+0x14a>
 8004bb8:	2002      	movs	r0, #2
 8004bba:	2300      	movs	r3, #0
 8004bbc:	6023      	str	r3, [r4, #0]
 8004bbe:	4607      	mov	r7, r0
 8004bc0:	4638      	mov	r0, r7
 8004bc2:	b011      	add	sp, #68	@ 0x44
 8004bc4:	e8bd 83f0 	ldmia.w	sp!, {r4, r5, r6, r7, r8, r9, pc}
 8004bc8:	2006      	movs	r0, #6
 8004bca:	e797      	b.n	8004afc <f_open+0x4c>
 8004bcc:	f89d 3012 	ldrb.w	r3, [sp, #18]
 8004bd0:	f013 0f11 	tst.w	r3, #17
 8004bd4:	d10f      	bne.n	8004bf6 <f_open+0x146>
 8004bd6:	f018 0f04 	tst.w	r8, #4
 8004bda:	d0a4      	beq.n	8004b26 <f_open+0x76>
 8004bdc:	2008      	movs	r0, #8
 8004bde:	e7ec      	b.n	8004bba <f_open+0x10a>
 8004be0:	2800      	cmp	r0, #0
 8004be2:	d1ea      	bne.n	8004bba <f_open+0x10a>
 8004be4:	f89d 3012 	ldrb.w	r3, [sp, #18]
 8004be8:	06da      	lsls	r2, r3, #27
 8004bea:	d45a      	bmi.n	8004ca2 <f_open+0x1f2>
 8004bec:	f018 0f02 	tst.w	r8, #2
 8004bf0:	d0cf      	beq.n	8004b92 <f_open+0xe2>
 8004bf2:	07db      	lsls	r3, r3, #31
 8004bf4:	d5cd      	bpl.n	8004b92 <f_open+0xe2>
 8004bf6:	2007      	movs	r0, #7
 8004bf8:	e7df      	b.n	8004bba <f_open+0x10a>
 8004bfa:	7828      	ldrb	r0, [r5, #0]
 8004bfc:	4641      	mov	r1, r8
 8004bfe:	f7ff fa3f 	bl	8004080 <ld_clust.isra.0>
 8004c02:	60a0      	str	r0, [r4, #8]
 8004c04:	f108 001c 	add.w	r0, r8, #28
 8004c08:	f7fe fe72 	bl	80038f0 <ld_dword>
 8004c0c:	2300      	movs	r3, #0
 8004c0e:	88ea      	ldrh	r2, [r5, #6]
 8004c10:	60e0      	str	r0, [r4, #12]
 8004c12:	f104 0830 	add.w	r8, r4, #48	@ 0x30
 8004c16:	80a2      	strh	r2, [r4, #4]
 8004c18:	62e3      	str	r3, [r4, #44]	@ 0x2c
 8004c1a:	f44f 5280 	mov.w	r2, #4096	@ 0x1000
 8004c1e:	6025      	str	r5, [r4, #0]
 8004c20:	7526      	strb	r6, [r4, #20]
 8004c22:	7563      	strb	r3, [r4, #21]
 8004c24:	6223      	str	r3, [r4, #32]
 8004c26:	61a3      	str	r3, [r4, #24]
 8004c28:	4619      	mov	r1, r3
 8004c2a:	4640      	mov	r0, r8
 8004c2c:	f7fe fe6a 	bl	8003904 <mem_set>
 8004c30:	06b2      	lsls	r2, r6, #26
 8004c32:	d5c5      	bpl.n	8004bc0 <f_open+0x110>
 8004c34:	68e6      	ldr	r6, [r4, #12]
 8004c36:	2e00      	cmp	r6, #0
 8004c38:	d0c2      	beq.n	8004bc0 <f_open+0x110>
 8004c3a:	f8b5 900a 	ldrh.w	r9, [r5, #10]
 8004c3e:	89aa      	ldrh	r2, [r5, #12]
 8004c40:	68a1      	ldr	r1, [r4, #8]
 8004c42:	61a6      	str	r6, [r4, #24]
 8004c44:	fb02 f909 	mul.w	r9, r2, r9
 8004c48:	454e      	cmp	r6, r9
 8004c4a:	d90b      	bls.n	8004c64 <f_open+0x1b4>
 8004c4c:	6820      	ldr	r0, [r4, #0]
 8004c4e:	f7ff fa1f 	bl	8004090 <get_fat.isra.0>
 8004c52:	2801      	cmp	r0, #1
 8004c54:	4601      	mov	r1, r0
 8004c56:	eba6 0609 	sub.w	r6, r6, r9
 8004c5a:	d91e      	bls.n	8004c9a <f_open+0x1ea>
 8004c5c:	1c43      	adds	r3, r0, #1
 8004c5e:	d1f3      	bne.n	8004c48 <f_open+0x198>
 8004c60:	2001      	movs	r0, #1
 8004c62:	e000      	b.n	8004c66 <f_open+0x1b6>
 8004c64:	2000      	movs	r0, #0
 8004c66:	61e1      	str	r1, [r4, #28]
 8004c68:	2800      	cmp	r0, #0
 8004c6a:	d1a6      	bne.n	8004bba <f_open+0x10a>
 8004c6c:	89ab      	ldrh	r3, [r5, #12]
 8004c6e:	fbb6 f2f3 	udiv	r2, r6, r3
 8004c72:	fb03 6612 	mls	r6, r3, r2, r6
 8004c76:	2e00      	cmp	r6, #0
 8004c78:	d0a2      	beq.n	8004bc0 <f_open+0x110>
 8004c7a:	4628      	mov	r0, r5
 8004c7c:	f7fe fef0 	bl	8003a60 <clust2sect>
 8004c80:	2800      	cmp	r0, #0
 8004c82:	d099      	beq.n	8004bb8 <f_open+0x108>
 8004c84:	4402      	add	r2, r0
 8004c86:	6222      	str	r2, [r4, #32]
 8004c88:	7868      	ldrb	r0, [r5, #1]
 8004c8a:	2301      	movs	r3, #1
 8004c8c:	4641      	mov	r1, r8
 8004c8e:	f7fe fe05 	bl	800389c <disk_read>
 8004c92:	2800      	cmp	r0, #0
 8004c94:	d094      	beq.n	8004bc0 <f_open+0x110>
 8004c96:	2001      	movs	r0, #1
 8004c98:	e78f      	b.n	8004bba <f_open+0x10a>
 8004c9a:	2002      	movs	r0, #2
 8004c9c:	e7e3      	b.n	8004c66 <f_open+0x1b6>
 8004c9e:	2012      	movs	r0, #18
 8004ca0:	e78b      	b.n	8004bba <f_open+0x10a>
 8004ca2:	2004      	movs	r0, #4
 8004ca4:	e789      	b.n	8004bba <f_open+0x10a>
 8004ca6:	2709      	movs	r7, #9
 8004ca8:	e78a      	b.n	8004bc0 <f_open+0x110>
 8004caa:	bf00      	nop
 8004cac:	2000258c 	.word	0x2000258c

08004cb0 <f_write>:
 8004cb0:	e92d 4ff0 	stmdb	sp!, {r4, r5, r6, r7, r8, r9, sl, fp, lr}
 8004cb4:	469a      	mov	sl, r3
 8004cb6:	b085      	sub	sp, #20
 8004cb8:	2300      	movs	r3, #0
 8004cba:	4689      	mov	r9, r1
 8004cbc:	f8ca 3000 	str.w	r3, [sl]
 8004cc0:	a903      	add	r1, sp, #12
 8004cc2:	4604      	mov	r4, r0
 8004cc4:	4617      	mov	r7, r2
 8004cc6:	f7fe ff10 	bl	8003aea <validate>
 8004cca:	4605      	mov	r5, r0
 8004ccc:	bb80      	cbnz	r0, 8004d30 <f_write+0x80>
 8004cce:	7d65      	ldrb	r5, [r4, #21]
 8004cd0:	bb75      	cbnz	r5, 8004d30 <f_write+0x80>
 8004cd2:	7d23      	ldrb	r3, [r4, #20]
 8004cd4:	079a      	lsls	r2, r3, #30
 8004cd6:	f140 80b8 	bpl.w	8004e4a <f_write+0x19a>
 8004cda:	69a3      	ldr	r3, [r4, #24]
 8004cdc:	42fb      	cmn	r3, r7
 8004cde:	bf28      	it	cs
 8004ce0:	43df      	mvncs	r7, r3
 8004ce2:	f104 0330 	add.w	r3, r4, #48	@ 0x30
 8004ce6:	9300      	str	r3, [sp, #0]
 8004ce8:	b1f7      	cbz	r7, 8004d28 <f_write+0x78>
 8004cea:	9e03      	ldr	r6, [sp, #12]
 8004cec:	69a1      	ldr	r1, [r4, #24]
 8004cee:	89b3      	ldrh	r3, [r6, #12]
 8004cf0:	fbb1 f2f3 	udiv	r2, r1, r3
 8004cf4:	fb03 1312 	mls	r3, r3, r2, r1
 8004cf8:	2b00      	cmp	r3, #0
 8004cfa:	f040 8090 	bne.w	8004e1e <f_write+0x16e>
 8004cfe:	f8b6 800a 	ldrh.w	r8, [r6, #10]
 8004d02:	f108 38ff 	add.w	r8, r8, #4294967295
 8004d06:	ea18 0802 	ands.w	r8, r8, r2
 8004d0a:	d124      	bne.n	8004d56 <f_write+0xa6>
 8004d0c:	b931      	cbnz	r1, 8004d1c <f_write+0x6c>
 8004d0e:	68a0      	ldr	r0, [r4, #8]
 8004d10:	b9a0      	cbnz	r0, 8004d3c <f_write+0x8c>
 8004d12:	4601      	mov	r1, r0
 8004d14:	4620      	mov	r0, r4
 8004d16:	f7ff fa5d 	bl	80041d4 <create_chain>
 8004d1a:	e004      	b.n	8004d26 <f_write+0x76>
 8004d1c:	6ae3      	ldr	r3, [r4, #44]	@ 0x2c
 8004d1e:	b15b      	cbz	r3, 8004d38 <f_write+0x88>
 8004d20:	4620      	mov	r0, r4
 8004d22:	f7fe fea8 	bl	8003a76 <clmt_clust>
 8004d26:	b948      	cbnz	r0, 8004d3c <f_write+0x8c>
 8004d28:	7d23      	ldrb	r3, [r4, #20]
 8004d2a:	f043 0340 	orr.w	r3, r3, #64	@ 0x40
 8004d2e:	7523      	strb	r3, [r4, #20]
 8004d30:	4628      	mov	r0, r5
 8004d32:	b005      	add	sp, #20
 8004d34:	e8bd 8ff0 	ldmia.w	sp!, {r4, r5, r6, r7, r8, r9, sl, fp, pc}
 8004d38:	69e1      	ldr	r1, [r4, #28]
 8004d3a:	e7eb      	b.n	8004d14 <f_write+0x64>
 8004d3c:	2801      	cmp	r0, #1
 8004d3e:	d102      	bne.n	8004d46 <f_write+0x96>
 8004d40:	2502      	movs	r5, #2
 8004d42:	7565      	strb	r5, [r4, #21]
 8004d44:	e7f4      	b.n	8004d30 <f_write+0x80>
 8004d46:	1c43      	adds	r3, r0, #1
 8004d48:	d101      	bne.n	8004d4e <f_write+0x9e>
 8004d4a:	2501      	movs	r5, #1
 8004d4c:	e7f9      	b.n	8004d42 <f_write+0x92>
 8004d4e:	68a3      	ldr	r3, [r4, #8]
 8004d50:	61e0      	str	r0, [r4, #28]
 8004d52:	b903      	cbnz	r3, 8004d56 <f_write+0xa6>
 8004d54:	60a0      	str	r0, [r4, #8]
 8004d56:	f994 3014 	ldrsb.w	r3, [r4, #20]
 8004d5a:	2b00      	cmp	r3, #0
 8004d5c:	da0c      	bge.n	8004d78 <f_write+0xc8>
 8004d5e:	6a22      	ldr	r2, [r4, #32]
 8004d60:	7870      	ldrb	r0, [r6, #1]
 8004d62:	2301      	movs	r3, #1
 8004d64:	f104 0130 	add.w	r1, r4, #48	@ 0x30
 8004d68:	f7fe fda6 	bl	80038b8 <disk_write>
 8004d6c:	2800      	cmp	r0, #0
 8004d6e:	d1ec      	bne.n	8004d4a <f_write+0x9a>
 8004d70:	7d23      	ldrb	r3, [r4, #20]
 8004d72:	f003 037f 	and.w	r3, r3, #127	@ 0x7f
 8004d76:	7523      	strb	r3, [r4, #20]
 8004d78:	69e1      	ldr	r1, [r4, #28]
 8004d7a:	4630      	mov	r0, r6
 8004d7c:	f7fe fe70 	bl	8003a60 <clust2sect>
 8004d80:	2800      	cmp	r0, #0
 8004d82:	d0dd      	beq.n	8004d40 <f_write+0x90>
 8004d84:	89b3      	ldrh	r3, [r6, #12]
 8004d86:	42bb      	cmp	r3, r7
 8004d88:	eb08 0b00 	add.w	fp, r8, r0
 8004d8c:	d835      	bhi.n	8004dfa <f_write+0x14a>
 8004d8e:	fbb7 f3f3 	udiv	r3, r7, r3
 8004d92:	8971      	ldrh	r1, [r6, #10]
 8004d94:	eb08 0003 	add.w	r0, r8, r3
 8004d98:	4288      	cmp	r0, r1
 8004d9a:	bf88      	it	hi
 8004d9c:	eba1 0308 	subhi.w	r3, r1, r8
 8004da0:	7870      	ldrb	r0, [r6, #1]
 8004da2:	9301      	str	r3, [sp, #4]
 8004da4:	465a      	mov	r2, fp
 8004da6:	4649      	mov	r1, r9
 8004da8:	f7fe fd86 	bl	80038b8 <disk_write>
 8004dac:	2800      	cmp	r0, #0
 8004dae:	d1cc      	bne.n	8004d4a <f_write+0x9a>
 8004db0:	6a21      	ldr	r1, [r4, #32]
 8004db2:	9b01      	ldr	r3, [sp, #4]
 8004db4:	eba1 010b 	sub.w	r1, r1, fp
 8004db8:	4299      	cmp	r1, r3
 8004dba:	d20c      	bcs.n	8004dd6 <f_write+0x126>
 8004dbc:	89b2      	ldrh	r2, [r6, #12]
 8004dbe:	b132      	cbz	r2, 8004dce <f_write+0x11e>
 8004dc0:	fb02 9101 	mla	r1, r2, r1, r9
 8004dc4:	f104 0030 	add.w	r0, r4, #48	@ 0x30
 8004dc8:	f7fe fece 	bl	8003b68 <mem_cpy.part.0>
 8004dcc:	9b01      	ldr	r3, [sp, #4]
 8004dce:	7d22      	ldrb	r2, [r4, #20]
 8004dd0:	f002 027f 	and.w	r2, r2, #127	@ 0x7f
 8004dd4:	7522      	strb	r2, [r4, #20]
 8004dd6:	89b6      	ldrh	r6, [r6, #12]
 8004dd8:	435e      	muls	r6, r3
 8004dda:	69a3      	ldr	r3, [r4, #24]
 8004ddc:	68e2      	ldr	r2, [r4, #12]
 8004dde:	4433      	add	r3, r6
 8004de0:	61a3      	str	r3, [r4, #24]
 8004de2:	429a      	cmp	r2, r3
 8004de4:	bf2c      	ite	cs
 8004de6:	60e2      	strcs	r2, [r4, #12]
 8004de8:	60e3      	strcc	r3, [r4, #12]
 8004dea:	f8da 3000 	ldr.w	r3, [sl]
 8004dee:	4433      	add	r3, r6
 8004df0:	44b1      	add	r9, r6
 8004df2:	f8ca 3000 	str.w	r3, [sl]
 8004df6:	1bbf      	subs	r7, r7, r6
 8004df8:	e776      	b.n	8004ce8 <f_write+0x38>
 8004dfa:	6a21      	ldr	r1, [r4, #32]
 8004dfc:	69a3      	ldr	r3, [r4, #24]
 8004dfe:	4559      	cmp	r1, fp
 8004e00:	d00b      	beq.n	8004e1a <f_write+0x16a>
 8004e02:	68e1      	ldr	r1, [r4, #12]
 8004e04:	4299      	cmp	r1, r3
 8004e06:	d908      	bls.n	8004e1a <f_write+0x16a>
 8004e08:	7870      	ldrb	r0, [r6, #1]
 8004e0a:	2301      	movs	r3, #1
 8004e0c:	465a      	mov	r2, fp
 8004e0e:	f104 0130 	add.w	r1, r4, #48	@ 0x30
 8004e12:	f7fe fd43 	bl	800389c <disk_read>
 8004e16:	2800      	cmp	r0, #0
 8004e18:	d197      	bne.n	8004d4a <f_write+0x9a>
 8004e1a:	f8c4 b020 	str.w	fp, [r4, #32]
 8004e1e:	89b6      	ldrh	r6, [r6, #12]
 8004e20:	69a0      	ldr	r0, [r4, #24]
 8004e22:	fbb0 f3f6 	udiv	r3, r0, r6
 8004e26:	fb06 0013 	mls	r0, r6, r3, r0
 8004e2a:	1a36      	subs	r6, r6, r0
 8004e2c:	42be      	cmp	r6, r7
 8004e2e:	bf28      	it	cs
 8004e30:	463e      	movcs	r6, r7
 8004e32:	b12e      	cbz	r6, 8004e40 <f_write+0x190>
 8004e34:	9b00      	ldr	r3, [sp, #0]
 8004e36:	4632      	mov	r2, r6
 8004e38:	4649      	mov	r1, r9
 8004e3a:	4418      	add	r0, r3
 8004e3c:	f7fe fe94 	bl	8003b68 <mem_cpy.part.0>
 8004e40:	7d23      	ldrb	r3, [r4, #20]
 8004e42:	f063 037f 	orn	r3, r3, #127	@ 0x7f
 8004e46:	7523      	strb	r3, [r4, #20]
 8004e48:	e7c7      	b.n	8004dda <f_write+0x12a>
 8004e4a:	2507      	movs	r5, #7
 8004e4c:	e770      	b.n	8004d30 <f_write+0x80>

08004e4e <f_sync>:
 8004e4e:	e92d 41f3 	stmdb	sp!, {r0, r1, r4, r5, r6, r7, r8, lr}
 8004e52:	a901      	add	r1, sp, #4
 8004e54:	4605      	mov	r5, r0
 8004e56:	f7fe fe48 	bl	8003aea <validate>
 8004e5a:	4604      	mov	r4, r0
 8004e5c:	2800      	cmp	r0, #0
 8004e5e:	d13b      	bne.n	8004ed8 <f_sync+0x8a>
 8004e60:	7d2b      	ldrb	r3, [r5, #20]
 8004e62:	f013 0440 	ands.w	r4, r3, #64	@ 0x40
 8004e66:	d037      	beq.n	8004ed8 <f_sync+0x8a>
 8004e68:	061b      	lsls	r3, r3, #24
 8004e6a:	9f01      	ldr	r7, [sp, #4]
 8004e6c:	d50b      	bpl.n	8004e86 <f_sync+0x38>
 8004e6e:	6a2a      	ldr	r2, [r5, #32]
 8004e70:	7878      	ldrb	r0, [r7, #1]
 8004e72:	2301      	movs	r3, #1
 8004e74:	f105 0130 	add.w	r1, r5, #48	@ 0x30
 8004e78:	f7fe fd1e 	bl	80038b8 <disk_write>
 8004e7c:	bb80      	cbnz	r0, 8004ee0 <f_sync+0x92>
 8004e7e:	7d2b      	ldrb	r3, [r5, #20]
 8004e80:	f003 037f 	and.w	r3, r3, #127	@ 0x7f
 8004e84:	752b      	strb	r3, [r5, #20]
 8004e86:	f7fe fcdf 	bl	8003848 <get_fattime>
 8004e8a:	6a69      	ldr	r1, [r5, #36]	@ 0x24
 8004e8c:	4680      	mov	r8, r0
 8004e8e:	4638      	mov	r0, r7
 8004e90:	f7fe fe7f 	bl	8003b92 <move_window>
 8004e94:	4604      	mov	r4, r0
 8004e96:	b9f8      	cbnz	r0, 8004ed8 <f_sync+0x8a>
 8004e98:	6aae      	ldr	r6, [r5, #40]	@ 0x28
 8004e9a:	7af3      	ldrb	r3, [r6, #11]
 8004e9c:	f043 0320 	orr.w	r3, r3, #32
 8004ea0:	72f3      	strb	r3, [r6, #11]
 8004ea2:	68aa      	ldr	r2, [r5, #8]
 8004ea4:	6828      	ldr	r0, [r5, #0]
 8004ea6:	4631      	mov	r1, r6
 8004ea8:	f7fe fe67 	bl	8003b7a <st_clust>
 8004eac:	68e9      	ldr	r1, [r5, #12]
 8004eae:	f106 001c 	add.w	r0, r6, #28
 8004eb2:	f7fe fd1f 	bl	80038f4 <st_dword>
 8004eb6:	4641      	mov	r1, r8
 8004eb8:	f106 0016 	add.w	r0, r6, #22
 8004ebc:	f7fe fd1a 	bl	80038f4 <st_dword>
 8004ec0:	2301      	movs	r3, #1
 8004ec2:	74b4      	strb	r4, [r6, #18]
 8004ec4:	74f4      	strb	r4, [r6, #19]
 8004ec6:	4638      	mov	r0, r7
 8004ec8:	70fb      	strb	r3, [r7, #3]
 8004eca:	f7ff f88f 	bl	8003fec <sync_fs>
 8004ece:	7d2b      	ldrb	r3, [r5, #20]
 8004ed0:	f023 0340 	bic.w	r3, r3, #64	@ 0x40
 8004ed4:	4604      	mov	r4, r0
 8004ed6:	752b      	strb	r3, [r5, #20]
 8004ed8:	4620      	mov	r0, r4
 8004eda:	b002      	add	sp, #8
 8004edc:	e8bd 81f0 	ldmia.w	sp!, {r4, r5, r6, r7, r8, pc}
 8004ee0:	2401      	movs	r4, #1
 8004ee2:	e7f9      	b.n	8004ed8 <f_sync+0x8a>

08004ee4 <f_close>:
 8004ee4:	b513      	push	{r0, r1, r4, lr}
 8004ee6:	4604      	mov	r4, r0
 8004ee8:	f7ff ffb1 	bl	8004e4e <f_sync>
 8004eec:	b948      	cbnz	r0, 8004f02 <f_close+0x1e>
 8004eee:	a901      	add	r1, sp, #4
 8004ef0:	4620      	mov	r0, r4
 8004ef2:	f7fe fdfa 	bl	8003aea <validate>
 8004ef6:	b920      	cbnz	r0, 8004f02 <f_close+0x1e>
 8004ef8:	6920      	ldr	r0, [r4, #16]
 8004efa:	f7fe fd85 	bl	8003a08 <dec_lock>
 8004efe:	b900      	cbnz	r0, 8004f02 <f_close+0x1e>
 8004f00:	6020      	str	r0, [r4, #0]
 8004f02:	b002      	add	sp, #8
 8004f04:	bd10      	pop	{r4, pc}

08004f06 <f_lseek>:
 8004f06:	e92d 4ff7 	stmdb	sp!, {r0, r1, r2, r4, r5, r6, r7, r8, r9, sl, fp, lr}
 8004f0a:	460d      	mov	r5, r1
 8004f0c:	a901      	add	r1, sp, #4
 8004f0e:	4604      	mov	r4, r0
 8004f10:	f7fe fdeb 	bl	8003aea <validate>
 8004f14:	4606      	mov	r6, r0
 8004f16:	b9e8      	cbnz	r0, 8004f54 <f_lseek+0x4e>
 8004f18:	7d66      	ldrb	r6, [r4, #21]
 8004f1a:	b9de      	cbnz	r6, 8004f54 <f_lseek+0x4e>
 8004f1c:	6ae3      	ldr	r3, [r4, #44]	@ 0x2c
 8004f1e:	2b00      	cmp	r3, #0
 8004f20:	d07b      	beq.n	800501a <f_lseek+0x114>
 8004f22:	1c6a      	adds	r2, r5, #1
 8004f24:	d139      	bne.n	8004f9a <f_lseek+0x94>
 8004f26:	461d      	mov	r5, r3
 8004f28:	f8d4 8008 	ldr.w	r8, [r4, #8]
 8004f2c:	f855 bb04 	ldr.w	fp, [r5], #4
 8004f30:	2702      	movs	r7, #2
 8004f32:	f1b8 0f00 	cmp.w	r8, #0
 8004f36:	d028      	beq.n	8004f8a <f_lseek+0x84>
 8004f38:	4640      	mov	r0, r8
 8004f3a:	f04f 0a00 	mov.w	sl, #0
 8004f3e:	4601      	mov	r1, r0
 8004f40:	4681      	mov	r9, r0
 8004f42:	6820      	ldr	r0, [r4, #0]
 8004f44:	f7ff f8a4 	bl	8004090 <get_fat.isra.0>
 8004f48:	2801      	cmp	r0, #1
 8004f4a:	f10a 0a01 	add.w	sl, sl, #1
 8004f4e:	d807      	bhi.n	8004f60 <f_lseek+0x5a>
 8004f50:	2602      	movs	r6, #2
 8004f52:	7566      	strb	r6, [r4, #21]
 8004f54:	4630      	mov	r0, r6
 8004f56:	b003      	add	sp, #12
 8004f58:	e8bd 8ff0 	ldmia.w	sp!, {r4, r5, r6, r7, r8, r9, sl, fp, pc}
 8004f5c:	4680      	mov	r8, r0
 8004f5e:	e7eb      	b.n	8004f38 <f_lseek+0x32>
 8004f60:	1c43      	adds	r3, r0, #1
 8004f62:	d101      	bne.n	8004f68 <f_lseek+0x62>
 8004f64:	2601      	movs	r6, #1
 8004f66:	e7f4      	b.n	8004f52 <f_lseek+0x4c>
 8004f68:	f109 0901 	add.w	r9, r9, #1
 8004f6c:	4581      	cmp	r9, r0
 8004f6e:	d0e6      	beq.n	8004f3e <f_lseek+0x38>
 8004f70:	3702      	adds	r7, #2
 8004f72:	45bb      	cmp	fp, r7
 8004f74:	bf21      	itttt	cs
 8004f76:	462b      	movcs	r3, r5
 8004f78:	f843 ab08 	strcs.w	sl, [r3], #8
 8004f7c:	f8c5 8004 	strcs.w	r8, [r5, #4]
 8004f80:	461d      	movcs	r5, r3
 8004f82:	9b01      	ldr	r3, [sp, #4]
 8004f84:	69db      	ldr	r3, [r3, #28]
 8004f86:	4283      	cmp	r3, r0
 8004f88:	d8e8      	bhi.n	8004f5c <f_lseek+0x56>
 8004f8a:	6ae3      	ldr	r3, [r4, #44]	@ 0x2c
 8004f8c:	455f      	cmp	r7, fp
 8004f8e:	601f      	str	r7, [r3, #0]
 8004f90:	f200 80bd 	bhi.w	800510e <f_lseek+0x208>
 8004f94:	2300      	movs	r3, #0
 8004f96:	602b      	str	r3, [r5, #0]
 8004f98:	e7dc      	b.n	8004f54 <f_lseek+0x4e>
 8004f9a:	68e3      	ldr	r3, [r4, #12]
 8004f9c:	429d      	cmp	r5, r3
 8004f9e:	bf28      	it	cs
 8004fa0:	461d      	movcs	r5, r3
 8004fa2:	46a8      	mov	r8, r5
 8004fa4:	61a5      	str	r5, [r4, #24]
 8004fa6:	2d00      	cmp	r5, #0
 8004fa8:	d0d4      	beq.n	8004f54 <f_lseek+0x4e>
 8004faa:	3d01      	subs	r5, #1
 8004fac:	4629      	mov	r1, r5
 8004fae:	4620      	mov	r0, r4
 8004fb0:	f7fe fd61 	bl	8003a76 <clmt_clust>
 8004fb4:	9f01      	ldr	r7, [sp, #4]
 8004fb6:	61e0      	str	r0, [r4, #28]
 8004fb8:	4601      	mov	r1, r0
 8004fba:	4638      	mov	r0, r7
 8004fbc:	f7fe fd50 	bl	8003a60 <clust2sect>
 8004fc0:	2800      	cmp	r0, #0
 8004fc2:	d0c5      	beq.n	8004f50 <f_lseek+0x4a>
 8004fc4:	89b9      	ldrh	r1, [r7, #12]
 8004fc6:	fbb8 f3f1 	udiv	r3, r8, r1
 8004fca:	fb01 8313 	mls	r3, r1, r3, r8
 8004fce:	897a      	ldrh	r2, [r7, #10]
 8004fd0:	2b00      	cmp	r3, #0
 8004fd2:	d0bf      	beq.n	8004f54 <f_lseek+0x4e>
 8004fd4:	fbb5 f5f1 	udiv	r5, r5, r1
 8004fd8:	1e53      	subs	r3, r2, #1
 8004fda:	401d      	ands	r5, r3
 8004fdc:	4405      	add	r5, r0
 8004fde:	6a22      	ldr	r2, [r4, #32]
 8004fe0:	42aa      	cmp	r2, r5
 8004fe2:	d0b7      	beq.n	8004f54 <f_lseek+0x4e>
 8004fe4:	f994 3014 	ldrsb.w	r3, [r4, #20]
 8004fe8:	7878      	ldrb	r0, [r7, #1]
 8004fea:	2b00      	cmp	r3, #0
 8004fec:	f104 0830 	add.w	r8, r4, #48	@ 0x30
 8004ff0:	da09      	bge.n	8005006 <f_lseek+0x100>
 8004ff2:	2301      	movs	r3, #1
 8004ff4:	4641      	mov	r1, r8
 8004ff6:	f7fe fc5f 	bl	80038b8 <disk_write>
 8004ffa:	2800      	cmp	r0, #0
 8004ffc:	d1b2      	bne.n	8004f64 <f_lseek+0x5e>
 8004ffe:	7d23      	ldrb	r3, [r4, #20]
 8005000:	f003 037f 	and.w	r3, r3, #127	@ 0x7f
 8005004:	7523      	strb	r3, [r4, #20]
 8005006:	7878      	ldrb	r0, [r7, #1]
 8005008:	2301      	movs	r3, #1
 800500a:	462a      	mov	r2, r5
 800500c:	4641      	mov	r1, r8
 800500e:	f7fe fc45 	bl	800389c <disk_read>
 8005012:	2800      	cmp	r0, #0
 8005014:	d1a6      	bne.n	8004f64 <f_lseek+0x5e>
 8005016:	6225      	str	r5, [r4, #32]
 8005018:	e79c      	b.n	8004f54 <f_lseek+0x4e>
 800501a:	68e3      	ldr	r3, [r4, #12]
 800501c:	42ab      	cmp	r3, r5
 800501e:	d204      	bcs.n	800502a <f_lseek+0x124>
 8005020:	7d22      	ldrb	r2, [r4, #20]
 8005022:	f012 0f02 	tst.w	r2, #2
 8005026:	bf08      	it	eq
 8005028:	461d      	moveq	r5, r3
 800502a:	9f01      	ldr	r7, [sp, #4]
 800502c:	69a3      	ldr	r3, [r4, #24]
 800502e:	2200      	movs	r2, #0
 8005030:	61a2      	str	r2, [r4, #24]
 8005032:	89ba      	ldrh	r2, [r7, #12]
 8005034:	b995      	cbnz	r5, 800505c <f_lseek+0x156>
 8005036:	2500      	movs	r5, #0
 8005038:	68e2      	ldr	r2, [r4, #12]
 800503a:	69a3      	ldr	r3, [r4, #24]
 800503c:	4293      	cmp	r3, r2
 800503e:	bf81      	itttt	hi
 8005040:	7d22      	ldrbhi	r2, [r4, #20]
 8005042:	60e3      	strhi	r3, [r4, #12]
 8005044:	f042 0240 	orrhi.w	r2, r2, #64	@ 0x40
 8005048:	7522      	strbhi	r2, [r4, #20]
 800504a:	89ba      	ldrh	r2, [r7, #12]
 800504c:	fbb3 f1f2 	udiv	r1, r3, r2
 8005050:	fb02 3311 	mls	r3, r2, r1, r3
 8005054:	2b00      	cmp	r3, #0
 8005056:	f43f af7d 	beq.w	8004f54 <f_lseek+0x4e>
 800505a:	e7c0      	b.n	8004fde <f_lseek+0xd8>
 800505c:	f8b7 800a 	ldrh.w	r8, [r7, #10]
 8005060:	fb02 f808 	mul.w	r8, r2, r8
 8005064:	b323      	cbz	r3, 80050b0 <f_lseek+0x1aa>
 8005066:	3b01      	subs	r3, #1
 8005068:	1e6a      	subs	r2, r5, #1
 800506a:	fbb3 f1f8 	udiv	r1, r3, r8
 800506e:	fbb2 f2f8 	udiv	r2, r2, r8
 8005072:	428a      	cmp	r2, r1
 8005074:	d31c      	bcc.n	80050b0 <f_lseek+0x1aa>
 8005076:	f1c8 0200 	rsb	r2, r8, #0
 800507a:	4013      	ands	r3, r2
 800507c:	69e1      	ldr	r1, [r4, #28]
 800507e:	61a3      	str	r3, [r4, #24]
 8005080:	1aed      	subs	r5, r5, r3
 8005082:	2900      	cmp	r1, #0
 8005084:	d0d7      	beq.n	8005036 <f_lseek+0x130>
 8005086:	4545      	cmp	r5, r8
 8005088:	69a3      	ldr	r3, [r4, #24]
 800508a:	d820      	bhi.n	80050ce <f_lseek+0x1c8>
 800508c:	69a3      	ldr	r3, [r4, #24]
 800508e:	442b      	add	r3, r5
 8005090:	61a3      	str	r3, [r4, #24]
 8005092:	89bb      	ldrh	r3, [r7, #12]
 8005094:	fbb5 f2f3 	udiv	r2, r5, r3
 8005098:	fb03 5512 	mls	r5, r3, r2, r5
 800509c:	2d00      	cmp	r5, #0
 800509e:	d0ca      	beq.n	8005036 <f_lseek+0x130>
 80050a0:	4638      	mov	r0, r7
 80050a2:	f7fe fcdd 	bl	8003a60 <clust2sect>
 80050a6:	2800      	cmp	r0, #0
 80050a8:	f43f af52 	beq.w	8004f50 <f_lseek+0x4a>
 80050ac:	1815      	adds	r5, r2, r0
 80050ae:	e7c3      	b.n	8005038 <f_lseek+0x132>
 80050b0:	68a1      	ldr	r1, [r4, #8]
 80050b2:	b951      	cbnz	r1, 80050ca <f_lseek+0x1c4>
 80050b4:	4620      	mov	r0, r4
 80050b6:	f7ff f88d 	bl	80041d4 <create_chain>
 80050ba:	2801      	cmp	r0, #1
 80050bc:	4601      	mov	r1, r0
 80050be:	f43f af47 	beq.w	8004f50 <f_lseek+0x4a>
 80050c2:	1c48      	adds	r0, r1, #1
 80050c4:	f43f af4e 	beq.w	8004f64 <f_lseek+0x5e>
 80050c8:	60a1      	str	r1, [r4, #8]
 80050ca:	61e1      	str	r1, [r4, #28]
 80050cc:	e7d9      	b.n	8005082 <f_lseek+0x17c>
 80050ce:	4443      	add	r3, r8
 80050d0:	61a3      	str	r3, [r4, #24]
 80050d2:	7d23      	ldrb	r3, [r4, #20]
 80050d4:	079a      	lsls	r2, r3, #30
 80050d6:	eba5 0908 	sub.w	r9, r5, r8
 80050da:	d506      	bpl.n	80050ea <f_lseek+0x1e4>
 80050dc:	4620      	mov	r0, r4
 80050de:	f7ff f879 	bl	80041d4 <create_chain>
 80050e2:	4605      	mov	r5, r0
 80050e4:	b928      	cbnz	r0, 80050f2 <f_lseek+0x1ec>
 80050e6:	4601      	mov	r1, r0
 80050e8:	e7d0      	b.n	800508c <f_lseek+0x186>
 80050ea:	6820      	ldr	r0, [r4, #0]
 80050ec:	f7fe ffd0 	bl	8004090 <get_fat.isra.0>
 80050f0:	4605      	mov	r5, r0
 80050f2:	1c6b      	adds	r3, r5, #1
 80050f4:	f43f af36 	beq.w	8004f64 <f_lseek+0x5e>
 80050f8:	2d01      	cmp	r5, #1
 80050fa:	f67f af29 	bls.w	8004f50 <f_lseek+0x4a>
 80050fe:	69fb      	ldr	r3, [r7, #28]
 8005100:	42ab      	cmp	r3, r5
 8005102:	f67f af25 	bls.w	8004f50 <f_lseek+0x4a>
 8005106:	61e5      	str	r5, [r4, #28]
 8005108:	4629      	mov	r1, r5
 800510a:	464d      	mov	r5, r9
 800510c:	e7bb      	b.n	8005086 <f_lseek+0x180>
 800510e:	2611      	movs	r6, #17
 8005110:	e720      	b.n	8004f54 <f_lseek+0x4e>

08005112 <f_getfree>:
 8005112:	e92d 43f0 	stmdb	sp!, {r4, r5, r6, r7, r8, r9, lr}
 8005116:	b085      	sub	sp, #20
 8005118:	460f      	mov	r7, r1
 800511a:	9001      	str	r0, [sp, #4]
 800511c:	4616      	mov	r6, r2
 800511e:	a903      	add	r1, sp, #12
 8005120:	2200      	movs	r2, #0
 8005122:	a801      	add	r0, sp, #4
 8005124:	f7fe fd8a 	bl	8003c3c <find_volume>
 8005128:	4605      	mov	r5, r0
 800512a:	b940      	cbnz	r0, 800513e <f_getfree+0x2c>
 800512c:	9c03      	ldr	r4, [sp, #12]
 800512e:	6034      	str	r4, [r6, #0]
 8005130:	e9d4 3806 	ldrd	r3, r8, [r4, #24]
 8005134:	f1a8 0202 	sub.w	r2, r8, #2
 8005138:	4293      	cmp	r3, r2
 800513a:	d804      	bhi.n	8005146 <f_getfree+0x34>
 800513c:	603b      	str	r3, [r7, #0]
 800513e:	4628      	mov	r0, r5
 8005140:	b005      	add	sp, #20
 8005142:	e8bd 83f0 	ldmia.w	sp!, {r4, r5, r6, r7, r8, r9, pc}
 8005146:	7823      	ldrb	r3, [r4, #0]
 8005148:	2b01      	cmp	r3, #1
 800514a:	d118      	bne.n	800517e <f_getfree+0x6c>
 800514c:	f04f 0802 	mov.w	r8, #2
 8005150:	4606      	mov	r6, r0
 8005152:	4641      	mov	r1, r8
 8005154:	4620      	mov	r0, r4
 8005156:	f7fe ff9b 	bl	8004090 <get_fat.isra.0>
 800515a:	1c43      	adds	r3, r0, #1
 800515c:	d034      	beq.n	80051c8 <f_getfree+0xb6>
 800515e:	2801      	cmp	r0, #1
 8005160:	d034      	beq.n	80051cc <f_getfree+0xba>
 8005162:	b900      	cbnz	r0, 8005166 <f_getfree+0x54>
 8005164:	3601      	adds	r6, #1
 8005166:	69e3      	ldr	r3, [r4, #28]
 8005168:	f108 0801 	add.w	r8, r8, #1
 800516c:	4543      	cmp	r3, r8
 800516e:	d8f0      	bhi.n	8005152 <f_getfree+0x40>
 8005170:	603e      	str	r6, [r7, #0]
 8005172:	7923      	ldrb	r3, [r4, #4]
 8005174:	61a6      	str	r6, [r4, #24]
 8005176:	f043 0301 	orr.w	r3, r3, #1
 800517a:	7123      	strb	r3, [r4, #4]
 800517c:	e7df      	b.n	800513e <f_getfree+0x2c>
 800517e:	6aa1      	ldr	r1, [r4, #40]	@ 0x28
 8005180:	4603      	mov	r3, r0
 8005182:	4602      	mov	r2, r0
 8005184:	4606      	mov	r6, r0
 8005186:	b94a      	cbnz	r2, 800519c <f_getfree+0x8a>
 8005188:	4620      	mov	r0, r4
 800518a:	f101 0901 	add.w	r9, r1, #1
 800518e:	f7fe fd00 	bl	8003b92 <move_window>
 8005192:	b9e8      	cbnz	r0, 80051d0 <f_getfree+0xbe>
 8005194:	89a2      	ldrh	r2, [r4, #12]
 8005196:	f104 0338 	add.w	r3, r4, #56	@ 0x38
 800519a:	4649      	mov	r1, r9
 800519c:	7820      	ldrb	r0, [r4, #0]
 800519e:	2802      	cmp	r0, #2
 80051a0:	d108      	bne.n	80051b4 <f_getfree+0xa2>
 80051a2:	8818      	ldrh	r0, [r3, #0]
 80051a4:	b900      	cbnz	r0, 80051a8 <f_getfree+0x96>
 80051a6:	3601      	adds	r6, #1
 80051a8:	3302      	adds	r3, #2
 80051aa:	3a02      	subs	r2, #2
 80051ac:	f1b8 0801 	subs.w	r8, r8, #1
 80051b0:	d1e9      	bne.n	8005186 <f_getfree+0x74>
 80051b2:	e7dd      	b.n	8005170 <f_getfree+0x5e>
 80051b4:	4618      	mov	r0, r3
 80051b6:	f7fe fb9b 	bl	80038f0 <ld_dword>
 80051ba:	f030 4070 	bics.w	r0, r0, #4026531840	@ 0xf0000000
 80051be:	bf08      	it	eq
 80051c0:	3601      	addeq	r6, #1
 80051c2:	3304      	adds	r3, #4
 80051c4:	3a04      	subs	r2, #4
 80051c6:	e7f1      	b.n	80051ac <f_getfree+0x9a>
 80051c8:	2501      	movs	r5, #1
 80051ca:	e7d1      	b.n	8005170 <f_getfree+0x5e>
 80051cc:	2502      	movs	r5, #2
 80051ce:	e7cf      	b.n	8005170 <f_getfree+0x5e>
 80051d0:	4605      	mov	r5, r0
 80051d2:	e7cd      	b.n	8005170 <f_getfree+0x5e>

080051d4 <FATFS_LinkDriverEx>:
 80051d4:	b530      	push	{r4, r5, lr}
 80051d6:	4b0e      	ldr	r3, [pc, #56]	@ (8005210 <FATFS_LinkDriverEx+0x3c>)
 80051d8:	7a5c      	ldrb	r4, [r3, #9]
 80051da:	4605      	mov	r5, r0
 80051dc:	f004 00ff 	and.w	r0, r4, #255	@ 0xff
 80051e0:	b9a4      	cbnz	r4, 800520c <FATFS_LinkDriverEx+0x38>
 80051e2:	7a5c      	ldrb	r4, [r3, #9]
 80051e4:	5518      	strb	r0, [r3, r4]
 80051e6:	7a5c      	ldrb	r4, [r3, #9]
 80051e8:	eb03 0484 	add.w	r4, r3, r4, lsl #2
 80051ec:	6065      	str	r5, [r4, #4]
 80051ee:	7a5c      	ldrb	r4, [r3, #9]
 80051f0:	441c      	add	r4, r3
 80051f2:	7222      	strb	r2, [r4, #8]
 80051f4:	7a5a      	ldrb	r2, [r3, #9]
 80051f6:	1c54      	adds	r4, r2, #1
 80051f8:	b2e4      	uxtb	r4, r4
 80051fa:	725c      	strb	r4, [r3, #9]
 80051fc:	233a      	movs	r3, #58	@ 0x3a
 80051fe:	3230      	adds	r2, #48	@ 0x30
 8005200:	704b      	strb	r3, [r1, #1]
 8005202:	232f      	movs	r3, #47	@ 0x2f
 8005204:	700a      	strb	r2, [r1, #0]
 8005206:	708b      	strb	r3, [r1, #2]
 8005208:	70c8      	strb	r0, [r1, #3]
 800520a:	bd30      	pop	{r4, r5, pc}
 800520c:	2001      	movs	r0, #1
 800520e:	e7fc      	b.n	800520a <FATFS_LinkDriverEx+0x36>
 8005210:	200025b4 	.word	0x200025b4

08005214 <FATFS_LinkDriver>:
 8005214:	2200      	movs	r2, #0
 8005216:	f7ff bfdd 	b.w	80051d4 <FATFS_LinkDriverEx>
	...

0800521c <ff_convert>:
 800521c:	287f      	cmp	r0, #127	@ 0x7f
 800521e:	d915      	bls.n	800524c <ff_convert+0x30>
 8005220:	b131      	cbz	r1, 8005230 <ff_convert+0x14>
 8005222:	28ff      	cmp	r0, #255	@ 0xff
 8005224:	d811      	bhi.n	800524a <ff_convert+0x2e>
 8005226:	4b0a      	ldr	r3, [pc, #40]	@ (8005250 <ff_convert+0x34>)
 8005228:	3880      	subs	r0, #128	@ 0x80
 800522a:	f833 0010 	ldrh.w	r0, [r3, r0, lsl #1]
 800522e:	4770      	bx	lr
 8005230:	4b07      	ldr	r3, [pc, #28]	@ (8005250 <ff_convert+0x34>)
 8005232:	f833 2b02 	ldrh.w	r2, [r3], #2
 8005236:	4282      	cmp	r2, r0
 8005238:	d005      	beq.n	8005246 <ff_convert+0x2a>
 800523a:	3101      	adds	r1, #1
 800523c:	2980      	cmp	r1, #128	@ 0x80
 800523e:	d1f8      	bne.n	8005232 <ff_convert+0x16>
 8005240:	3180      	adds	r1, #128	@ 0x80
 8005242:	b2c8      	uxtb	r0, r1
 8005244:	4770      	bx	lr
 8005246:	b289      	uxth	r1, r1
 8005248:	e7fa      	b.n	8005240 <ff_convert+0x24>
 800524a:	2000      	movs	r0, #0
 800524c:	4770      	bx	lr
 800524e:	bf00      	nop
 8005250:	08006066 	.word	0x08006066

08005254 <ff_wtoupper>:
 8005254:	b570      	push	{r4, r5, r6, lr}
 8005256:	4b1e      	ldr	r3, [pc, #120]	@ (80052d0 <ff_wtoupper+0x7c>)
 8005258:	4a1e      	ldr	r2, [pc, #120]	@ (80052d4 <ff_wtoupper+0x80>)
 800525a:	f5b0 5f80 	cmp.w	r0, #4096	@ 0x1000
 800525e:	bf28      	it	cs
 8005260:	4613      	movcs	r3, r2
 8005262:	1d19      	adds	r1, r3, #4
 8005264:	f831 3c04 	ldrh.w	r3, [r1, #-4]
 8005268:	460a      	mov	r2, r1
 800526a:	b1ab      	cbz	r3, 8005298 <ff_wtoupper+0x44>
 800526c:	4298      	cmp	r0, r3
 800526e:	d313      	bcc.n	8005298 <ff_wtoupper+0x44>
 8005270:	f831 4c02 	ldrh.w	r4, [r1, #-2]
 8005274:	0a25      	lsrs	r5, r4, #8
 8005276:	b2e6      	uxtb	r6, r4
 8005278:	fa53 f484 	uxtab	r4, r3, r4
 800527c:	42a0      	cmp	r0, r4
 800527e:	da21      	bge.n	80052c4 <ff_wtoupper+0x70>
 8005280:	2d08      	cmp	r5, #8
 8005282:	d809      	bhi.n	8005298 <ff_wtoupper+0x44>
 8005284:	e8df f005 	tbb	[pc, r5]
 8005288:	110f0905 	.word	0x110f0905
 800528c:	19171513 	.word	0x19171513
 8005290:	1b          	.byte	0x1b
 8005291:	00          	.byte	0x00
 8005292:	1ac0      	subs	r0, r0, r3
 8005294:	f831 0010 	ldrh.w	r0, [r1, r0, lsl #1]
 8005298:	bd70      	pop	{r4, r5, r6, pc}
 800529a:	1ac3      	subs	r3, r0, r3
 800529c:	f003 0301 	and.w	r3, r3, #1
 80052a0:	1ac0      	subs	r0, r0, r3
 80052a2:	b280      	uxth	r0, r0
 80052a4:	e7f8      	b.n	8005298 <ff_wtoupper+0x44>
 80052a6:	3810      	subs	r0, #16
 80052a8:	e7fb      	b.n	80052a2 <ff_wtoupper+0x4e>
 80052aa:	3820      	subs	r0, #32
 80052ac:	e7f9      	b.n	80052a2 <ff_wtoupper+0x4e>
 80052ae:	3830      	subs	r0, #48	@ 0x30
 80052b0:	e7f7      	b.n	80052a2 <ff_wtoupper+0x4e>
 80052b2:	381a      	subs	r0, #26
 80052b4:	e7f5      	b.n	80052a2 <ff_wtoupper+0x4e>
 80052b6:	3008      	adds	r0, #8
 80052b8:	e7f3      	b.n	80052a2 <ff_wtoupper+0x4e>
 80052ba:	3850      	subs	r0, #80	@ 0x50
 80052bc:	e7f1      	b.n	80052a2 <ff_wtoupper+0x4e>
 80052be:	f5a0 50e3 	sub.w	r0, r0, #7264	@ 0x1c60
 80052c2:	e7ee      	b.n	80052a2 <ff_wtoupper+0x4e>
 80052c4:	3104      	adds	r1, #4
 80052c6:	2d00      	cmp	r5, #0
 80052c8:	d1cc      	bne.n	8005264 <ff_wtoupper+0x10>
 80052ca:	eb02 0346 	add.w	r3, r2, r6, lsl #1
 80052ce:	e7c8      	b.n	8005262 <ff_wtoupper+0xe>
 80052d0:	08005e74 	.word	0x08005e74
 80052d4:	08005db8 	.word	0x08005db8

080052d8 <siprintf>:
 80052d8:	b40e      	push	{r1, r2, r3}
 80052da:	b500      	push	{lr}
 80052dc:	b09c      	sub	sp, #112	@ 0x70
 80052de:	ab1d      	add	r3, sp, #116	@ 0x74
 80052e0:	9002      	str	r0, [sp, #8]
 80052e2:	9006      	str	r0, [sp, #24]
 80052e4:	f06f 4100 	mvn.w	r1, #2147483648	@ 0x80000000
 80052e8:	4809      	ldr	r0, [pc, #36]	@ (8005310 <siprintf+0x38>)
 80052ea:	9107      	str	r1, [sp, #28]
 80052ec:	9104      	str	r1, [sp, #16]
 80052ee:	4909      	ldr	r1, [pc, #36]	@ (8005314 <siprintf+0x3c>)
 80052f0:	f853 2b04 	ldr.w	r2, [r3], #4
 80052f4:	9105      	str	r1, [sp, #20]
 80052f6:	6800      	ldr	r0, [r0, #0]
 80052f8:	9301      	str	r3, [sp, #4]
 80052fa:	a902      	add	r1, sp, #8
 80052fc:	f000 f994 	bl	8005628 <_svfiprintf_r>
 8005300:	9b02      	ldr	r3, [sp, #8]
 8005302:	2200      	movs	r2, #0
 8005304:	701a      	strb	r2, [r3, #0]
 8005306:	b01c      	add	sp, #112	@ 0x70
 8005308:	f85d eb04 	ldr.w	lr, [sp], #4
 800530c:	b003      	add	sp, #12
 800530e:	4770      	bx	lr
 8005310:	20000024 	.word	0x20000024
 8005314:	ffff0208 	.word	0xffff0208

08005318 <memset>:
 8005318:	4402      	add	r2, r0
 800531a:	4603      	mov	r3, r0
 800531c:	4293      	cmp	r3, r2
 800531e:	d100      	bne.n	8005322 <memset+0xa>
 8005320:	4770      	bx	lr
 8005322:	f803 1b01 	strb.w	r1, [r3], #1
 8005326:	e7f9      	b.n	800531c <memset+0x4>

08005328 <__errno>:
 8005328:	4b01      	ldr	r3, [pc, #4]	@ (8005330 <__errno+0x8>)
 800532a:	6818      	ldr	r0, [r3, #0]
 800532c:	4770      	bx	lr
 800532e:	bf00      	nop
 8005330:	20000024 	.word	0x20000024

08005334 <__libc_init_array>:
 8005334:	b570      	push	{r4, r5, r6, lr}
 8005336:	4d0d      	ldr	r5, [pc, #52]	@ (800536c <__libc_init_array+0x38>)
 8005338:	4c0d      	ldr	r4, [pc, #52]	@ (8005370 <__libc_init_array+0x3c>)
 800533a:	1b64      	subs	r4, r4, r5
 800533c:	10a4      	asrs	r4, r4, #2
 800533e:	2600      	movs	r6, #0
 8005340:	42a6      	cmp	r6, r4
 8005342:	d109      	bne.n	8005358 <__libc_init_array+0x24>
 8005344:	4d0b      	ldr	r5, [pc, #44]	@ (8005374 <__libc_init_array+0x40>)
 8005346:	4c0c      	ldr	r4, [pc, #48]	@ (8005378 <__libc_init_array+0x44>)
 8005348:	f000 fc66 	bl	8005c18 <_init>
 800534c:	1b64      	subs	r4, r4, r5
 800534e:	10a4      	asrs	r4, r4, #2
 8005350:	2600      	movs	r6, #0
 8005352:	42a6      	cmp	r6, r4
 8005354:	d105      	bne.n	8005362 <__libc_init_array+0x2e>
 8005356:	bd70      	pop	{r4, r5, r6, pc}
 8005358:	f855 3b04 	ldr.w	r3, [r5], #4
 800535c:	4798      	blx	r3
 800535e:	3601      	adds	r6, #1
 8005360:	e7ee      	b.n	8005340 <__libc_init_array+0xc>
 8005362:	f855 3b04 	ldr.w	r3, [r5], #4
 8005366:	4798      	blx	r3
 8005368:	3601      	adds	r6, #1
 800536a:	e7f2      	b.n	8005352 <__libc_init_array+0x1e>
 800536c:	080061a4 	.word	0x080061a4
 8005370:	080061a4 	.word	0x080061a4
 8005374:	080061a4 	.word	0x080061a4
 8005378:	080061a8 	.word	0x080061a8

0800537c <__retarget_lock_acquire_recursive>:
 800537c:	4770      	bx	lr

0800537e <__retarget_lock_release_recursive>:
 800537e:	4770      	bx	lr

08005380 <_free_r>:
 8005380:	b538      	push	{r3, r4, r5, lr}
 8005382:	4605      	mov	r5, r0
 8005384:	2900      	cmp	r1, #0
 8005386:	d041      	beq.n	800540c <_free_r+0x8c>
 8005388:	f851 3c04 	ldr.w	r3, [r1, #-4]
 800538c:	1f0c      	subs	r4, r1, #4
 800538e:	2b00      	cmp	r3, #0
 8005390:	bfb8      	it	lt
 8005392:	18e4      	addlt	r4, r4, r3
 8005394:	f000 f8e0 	bl	8005558 <__malloc_lock>
 8005398:	4a1d      	ldr	r2, [pc, #116]	@ (8005410 <_free_r+0x90>)
 800539a:	6813      	ldr	r3, [r2, #0]
 800539c:	b933      	cbnz	r3, 80053ac <_free_r+0x2c>
 800539e:	6063      	str	r3, [r4, #4]
 80053a0:	6014      	str	r4, [r2, #0]
 80053a2:	4628      	mov	r0, r5
 80053a4:	e8bd 4038 	ldmia.w	sp!, {r3, r4, r5, lr}
 80053a8:	f000 b8dc 	b.w	8005564 <__malloc_unlock>
 80053ac:	42a3      	cmp	r3, r4
 80053ae:	d908      	bls.n	80053c2 <_free_r+0x42>
 80053b0:	6820      	ldr	r0, [r4, #0]
 80053b2:	1821      	adds	r1, r4, r0
 80053b4:	428b      	cmp	r3, r1
 80053b6:	bf01      	itttt	eq
 80053b8:	6819      	ldreq	r1, [r3, #0]
 80053ba:	685b      	ldreq	r3, [r3, #4]
 80053bc:	1809      	addeq	r1, r1, r0
 80053be:	6021      	streq	r1, [r4, #0]
 80053c0:	e7ed      	b.n	800539e <_free_r+0x1e>
 80053c2:	461a      	mov	r2, r3
 80053c4:	685b      	ldr	r3, [r3, #4]
 80053c6:	b10b      	cbz	r3, 80053cc <_free_r+0x4c>
 80053c8:	42a3      	cmp	r3, r4
 80053ca:	d9fa      	bls.n	80053c2 <_free_r+0x42>
 80053cc:	6811      	ldr	r1, [r2, #0]
 80053ce:	1850      	adds	r0, r2, r1
 80053d0:	42a0      	cmp	r0, r4
 80053d2:	d10b      	bne.n	80053ec <_free_r+0x6c>
 80053d4:	6820      	ldr	r0, [r4, #0]
 80053d6:	4401      	add	r1, r0
 80053d8:	1850      	adds	r0, r2, r1
 80053da:	4283      	cmp	r3, r0
 80053dc:	6011      	str	r1, [r2, #0]
 80053de:	d1e0      	bne.n	80053a2 <_free_r+0x22>
 80053e0:	6818      	ldr	r0, [r3, #0]
 80053e2:	685b      	ldr	r3, [r3, #4]
 80053e4:	6053      	str	r3, [r2, #4]
 80053e6:	4408      	add	r0, r1
 80053e8:	6010      	str	r0, [r2, #0]
 80053ea:	e7da      	b.n	80053a2 <_free_r+0x22>
 80053ec:	d902      	bls.n	80053f4 <_free_r+0x74>
 80053ee:	230c      	movs	r3, #12
 80053f0:	602b      	str	r3, [r5, #0]
 80053f2:	e7d6      	b.n	80053a2 <_free_r+0x22>
 80053f4:	6820      	ldr	r0, [r4, #0]
 80053f6:	1821      	adds	r1, r4, r0
 80053f8:	428b      	cmp	r3, r1
 80053fa:	bf04      	itt	eq
 80053fc:	6819      	ldreq	r1, [r3, #0]
 80053fe:	685b      	ldreq	r3, [r3, #4]
 8005400:	6063      	str	r3, [r4, #4]
 8005402:	bf04      	itt	eq
 8005404:	1809      	addeq	r1, r1, r0
 8005406:	6021      	streq	r1, [r4, #0]
 8005408:	6054      	str	r4, [r2, #4]
 800540a:	e7ca      	b.n	80053a2 <_free_r+0x22>
 800540c:	bd38      	pop	{r3, r4, r5, pc}
 800540e:	bf00      	nop
 8005410:	20002704 	.word	0x20002704

08005414 <sbrk_aligned>:
 8005414:	b570      	push	{r4, r5, r6, lr}
 8005416:	4e0f      	ldr	r6, [pc, #60]	@ (8005454 <sbrk_aligned+0x40>)
 8005418:	460c      	mov	r4, r1
 800541a:	6831      	ldr	r1, [r6, #0]
 800541c:	4605      	mov	r5, r0
 800541e:	b911      	cbnz	r1, 8005426 <sbrk_aligned+0x12>
 8005420:	f000 fba6 	bl	8005b70 <_sbrk_r>
 8005424:	6030      	str	r0, [r6, #0]
 8005426:	4621      	mov	r1, r4
 8005428:	4628      	mov	r0, r5
 800542a:	f000 fba1 	bl	8005b70 <_sbrk_r>
 800542e:	1c43      	adds	r3, r0, #1
 8005430:	d103      	bne.n	800543a <sbrk_aligned+0x26>
 8005432:	f04f 34ff 	mov.w	r4, #4294967295
 8005436:	4620      	mov	r0, r4
 8005438:	bd70      	pop	{r4, r5, r6, pc}
 800543a:	1cc4      	adds	r4, r0, #3
 800543c:	f024 0403 	bic.w	r4, r4, #3
 8005440:	42a0      	cmp	r0, r4
 8005442:	d0f8      	beq.n	8005436 <sbrk_aligned+0x22>
 8005444:	1a21      	subs	r1, r4, r0
 8005446:	4628      	mov	r0, r5
 8005448:	f000 fb92 	bl	8005b70 <_sbrk_r>
 800544c:	3001      	adds	r0, #1
 800544e:	d1f2      	bne.n	8005436 <sbrk_aligned+0x22>
 8005450:	e7ef      	b.n	8005432 <sbrk_aligned+0x1e>
 8005452:	bf00      	nop
 8005454:	20002700 	.word	0x20002700

08005458 <_malloc_r>:
 8005458:	e92d 43f8 	stmdb	sp!, {r3, r4, r5, r6, r7, r8, r9, lr}
 800545c:	1ccd      	adds	r5, r1, #3
 800545e:	f025 0503 	bic.w	r5, r5, #3
 8005462:	3508      	adds	r5, #8
 8005464:	2d0c      	cmp	r5, #12
 8005466:	bf38      	it	cc
 8005468:	250c      	movcc	r5, #12
 800546a:	2d00      	cmp	r5, #0
 800546c:	4606      	mov	r6, r0
 800546e:	db01      	blt.n	8005474 <_malloc_r+0x1c>
 8005470:	42a9      	cmp	r1, r5
 8005472:	d904      	bls.n	800547e <_malloc_r+0x26>
 8005474:	230c      	movs	r3, #12
 8005476:	6033      	str	r3, [r6, #0]
 8005478:	2000      	movs	r0, #0
 800547a:	e8bd 83f8 	ldmia.w	sp!, {r3, r4, r5, r6, r7, r8, r9, pc}
 800547e:	f8df 80d4 	ldr.w	r8, [pc, #212]	@ 8005554 <_malloc_r+0xfc>
 8005482:	f000 f869 	bl	8005558 <__malloc_lock>
 8005486:	f8d8 3000 	ldr.w	r3, [r8]
 800548a:	461c      	mov	r4, r3
 800548c:	bb44      	cbnz	r4, 80054e0 <_malloc_r+0x88>
 800548e:	4629      	mov	r1, r5
 8005490:	4630      	mov	r0, r6
 8005492:	f7ff ffbf 	bl	8005414 <sbrk_aligned>
 8005496:	1c43      	adds	r3, r0, #1
 8005498:	4604      	mov	r4, r0
 800549a:	d158      	bne.n	800554e <_malloc_r+0xf6>
 800549c:	f8d8 4000 	ldr.w	r4, [r8]
 80054a0:	4627      	mov	r7, r4
 80054a2:	2f00      	cmp	r7, #0
 80054a4:	d143      	bne.n	800552e <_malloc_r+0xd6>
 80054a6:	2c00      	cmp	r4, #0
 80054a8:	d04b      	beq.n	8005542 <_malloc_r+0xea>
 80054aa:	6823      	ldr	r3, [r4, #0]
 80054ac:	4639      	mov	r1, r7
 80054ae:	4630      	mov	r0, r6
 80054b0:	eb04 0903 	add.w	r9, r4, r3
 80054b4:	f000 fb5c 	bl	8005b70 <_sbrk_r>
 80054b8:	4581      	cmp	r9, r0
 80054ba:	d142      	bne.n	8005542 <_malloc_r+0xea>
 80054bc:	6821      	ldr	r1, [r4, #0]
 80054be:	1a6d      	subs	r5, r5, r1
 80054c0:	4629      	mov	r1, r5
 80054c2:	4630      	mov	r0, r6
 80054c4:	f7ff ffa6 	bl	8005414 <sbrk_aligned>
 80054c8:	3001      	adds	r0, #1
 80054ca:	d03a      	beq.n	8005542 <_malloc_r+0xea>
 80054cc:	6823      	ldr	r3, [r4, #0]
 80054ce:	442b      	add	r3, r5
 80054d0:	6023      	str	r3, [r4, #0]
 80054d2:	f8d8 3000 	ldr.w	r3, [r8]
 80054d6:	685a      	ldr	r2, [r3, #4]
 80054d8:	bb62      	cbnz	r2, 8005534 <_malloc_r+0xdc>
 80054da:	f8c8 7000 	str.w	r7, [r8]
 80054de:	e00f      	b.n	8005500 <_malloc_r+0xa8>
 80054e0:	6822      	ldr	r2, [r4, #0]
 80054e2:	1b52      	subs	r2, r2, r5
 80054e4:	d420      	bmi.n	8005528 <_malloc_r+0xd0>
 80054e6:	2a0b      	cmp	r2, #11
 80054e8:	d917      	bls.n	800551a <_malloc_r+0xc2>
 80054ea:	1961      	adds	r1, r4, r5
 80054ec:	42a3      	cmp	r3, r4
 80054ee:	6025      	str	r5, [r4, #0]
 80054f0:	bf18      	it	ne
 80054f2:	6059      	strne	r1, [r3, #4]
 80054f4:	6863      	ldr	r3, [r4, #4]
 80054f6:	bf08      	it	eq
 80054f8:	f8c8 1000 	streq.w	r1, [r8]
 80054fc:	5162      	str	r2, [r4, r5]
 80054fe:	604b      	str	r3, [r1, #4]
 8005500:	4630      	mov	r0, r6
 8005502:	f000 f82f 	bl	8005564 <__malloc_unlock>
 8005506:	f104 000b 	add.w	r0, r4, #11
 800550a:	1d23      	adds	r3, r4, #4
 800550c:	f020 0007 	bic.w	r0, r0, #7
 8005510:	1ac2      	subs	r2, r0, r3
 8005512:	bf1c      	itt	ne
 8005514:	1a1b      	subne	r3, r3, r0
 8005516:	50a3      	strne	r3, [r4, r2]
 8005518:	e7af      	b.n	800547a <_malloc_r+0x22>
 800551a:	6862      	ldr	r2, [r4, #4]
 800551c:	42a3      	cmp	r3, r4
 800551e:	bf0c      	ite	eq
 8005520:	f8c8 2000 	streq.w	r2, [r8]
 8005524:	605a      	strne	r2, [r3, #4]
 8005526:	e7eb      	b.n	8005500 <_malloc_r+0xa8>
 8005528:	4623      	mov	r3, r4
 800552a:	6864      	ldr	r4, [r4, #4]
 800552c:	e7ae      	b.n	800548c <_malloc_r+0x34>
 800552e:	463c      	mov	r4, r7
 8005530:	687f      	ldr	r7, [r7, #4]
 8005532:	e7b6      	b.n	80054a2 <_malloc_r+0x4a>
 8005534:	461a      	mov	r2, r3
 8005536:	685b      	ldr	r3, [r3, #4]
 8005538:	42a3      	cmp	r3, r4
 800553a:	d1fb      	bne.n	8005534 <_malloc_r+0xdc>
 800553c:	2300      	movs	r3, #0
 800553e:	6053      	str	r3, [r2, #4]
 8005540:	e7de      	b.n	8005500 <_malloc_r+0xa8>
 8005542:	230c      	movs	r3, #12
 8005544:	6033      	str	r3, [r6, #0]
 8005546:	4630      	mov	r0, r6
 8005548:	f000 f80c 	bl	8005564 <__malloc_unlock>
 800554c:	e794      	b.n	8005478 <_malloc_r+0x20>
 800554e:	6005      	str	r5, [r0, #0]
 8005550:	e7d6      	b.n	8005500 <_malloc_r+0xa8>
 8005552:	bf00      	nop
 8005554:	20002704 	.word	0x20002704

08005558 <__malloc_lock>:
 8005558:	4801      	ldr	r0, [pc, #4]	@ (8005560 <__malloc_lock+0x8>)
 800555a:	f7ff bf0f 	b.w	800537c <__retarget_lock_acquire_recursive>
 800555e:	bf00      	nop
 8005560:	200026fc 	.word	0x200026fc

08005564 <__malloc_unlock>:
 8005564:	4801      	ldr	r0, [pc, #4]	@ (800556c <__malloc_unlock+0x8>)
 8005566:	f7ff bf0a 	b.w	800537e <__retarget_lock_release_recursive>
 800556a:	bf00      	nop
 800556c:	200026fc 	.word	0x200026fc

08005570 <__ssputs_r>:
 8005570:	e92d 47f0 	stmdb	sp!, {r4, r5, r6, r7, r8, r9, sl, lr}
 8005574:	688e      	ldr	r6, [r1, #8]
 8005576:	461f      	mov	r7, r3
 8005578:	42be      	cmp	r6, r7
 800557a:	680b      	ldr	r3, [r1, #0]
 800557c:	4682      	mov	sl, r0
 800557e:	460c      	mov	r4, r1
 8005580:	4690      	mov	r8, r2
 8005582:	d82d      	bhi.n	80055e0 <__ssputs_r+0x70>
 8005584:	f9b1 200c 	ldrsh.w	r2, [r1, #12]
 8005588:	f412 6f90 	tst.w	r2, #1152	@ 0x480
 800558c:	d026      	beq.n	80055dc <__ssputs_r+0x6c>
 800558e:	6965      	ldr	r5, [r4, #20]
 8005590:	6909      	ldr	r1, [r1, #16]
 8005592:	eb05 0545 	add.w	r5, r5, r5, lsl #1
 8005596:	eba3 0901 	sub.w	r9, r3, r1
 800559a:	eb05 75d5 	add.w	r5, r5, r5, lsr #31
 800559e:	1c7b      	adds	r3, r7, #1
 80055a0:	444b      	add	r3, r9
 80055a2:	106d      	asrs	r5, r5, #1
 80055a4:	429d      	cmp	r5, r3
 80055a6:	bf38      	it	cc
 80055a8:	461d      	movcc	r5, r3
 80055aa:	0553      	lsls	r3, r2, #21
 80055ac:	d527      	bpl.n	80055fe <__ssputs_r+0x8e>
 80055ae:	4629      	mov	r1, r5
 80055b0:	f7ff ff52 	bl	8005458 <_malloc_r>
 80055b4:	4606      	mov	r6, r0
 80055b6:	b360      	cbz	r0, 8005612 <__ssputs_r+0xa2>
 80055b8:	6921      	ldr	r1, [r4, #16]
 80055ba:	464a      	mov	r2, r9
 80055bc:	f000 fae8 	bl	8005b90 <memcpy>
 80055c0:	89a3      	ldrh	r3, [r4, #12]
 80055c2:	f423 6390 	bic.w	r3, r3, #1152	@ 0x480
 80055c6:	f043 0380 	orr.w	r3, r3, #128	@ 0x80
 80055ca:	81a3      	strh	r3, [r4, #12]
 80055cc:	6126      	str	r6, [r4, #16]
 80055ce:	6165      	str	r5, [r4, #20]
 80055d0:	444e      	add	r6, r9
 80055d2:	eba5 0509 	sub.w	r5, r5, r9
 80055d6:	6026      	str	r6, [r4, #0]
 80055d8:	60a5      	str	r5, [r4, #8]
 80055da:	463e      	mov	r6, r7
 80055dc:	42be      	cmp	r6, r7
 80055de:	d900      	bls.n	80055e2 <__ssputs_r+0x72>
 80055e0:	463e      	mov	r6, r7
 80055e2:	6820      	ldr	r0, [r4, #0]
 80055e4:	4632      	mov	r2, r6
 80055e6:	4641      	mov	r1, r8
 80055e8:	f000 faa8 	bl	8005b3c <memmove>
 80055ec:	68a3      	ldr	r3, [r4, #8]
 80055ee:	1b9b      	subs	r3, r3, r6
 80055f0:	60a3      	str	r3, [r4, #8]
 80055f2:	6823      	ldr	r3, [r4, #0]
 80055f4:	4433      	add	r3, r6
 80055f6:	6023      	str	r3, [r4, #0]
 80055f8:	2000      	movs	r0, #0
 80055fa:	e8bd 87f0 	ldmia.w	sp!, {r4, r5, r6, r7, r8, r9, sl, pc}
 80055fe:	462a      	mov	r2, r5
 8005600:	f000 fad4 	bl	8005bac <_realloc_r>
 8005604:	4606      	mov	r6, r0
 8005606:	2800      	cmp	r0, #0
 8005608:	d1e0      	bne.n	80055cc <__ssputs_r+0x5c>
 800560a:	6921      	ldr	r1, [r4, #16]
 800560c:	4650      	mov	r0, sl
 800560e:	f7ff feb7 	bl	8005380 <_free_r>
 8005612:	230c      	movs	r3, #12
 8005614:	f8ca 3000 	str.w	r3, [sl]
 8005618:	89a3      	ldrh	r3, [r4, #12]
 800561a:	f043 0340 	orr.w	r3, r3, #64	@ 0x40
 800561e:	81a3      	strh	r3, [r4, #12]
 8005620:	f04f 30ff 	mov.w	r0, #4294967295
 8005624:	e7e9      	b.n	80055fa <__ssputs_r+0x8a>
	...

08005628 <_svfiprintf_r>:
 8005628:	e92d 4ff0 	stmdb	sp!, {r4, r5, r6, r7, r8, r9, sl, fp, lr}
 800562c:	4698      	mov	r8, r3
 800562e:	898b      	ldrh	r3, [r1, #12]
 8005630:	061b      	lsls	r3, r3, #24
 8005632:	b09d      	sub	sp, #116	@ 0x74
 8005634:	4607      	mov	r7, r0
 8005636:	460d      	mov	r5, r1
 8005638:	4614      	mov	r4, r2
 800563a:	d510      	bpl.n	800565e <_svfiprintf_r+0x36>
 800563c:	690b      	ldr	r3, [r1, #16]
 800563e:	b973      	cbnz	r3, 800565e <_svfiprintf_r+0x36>
 8005640:	2140      	movs	r1, #64	@ 0x40
 8005642:	f7ff ff09 	bl	8005458 <_malloc_r>
 8005646:	6028      	str	r0, [r5, #0]
 8005648:	6128      	str	r0, [r5, #16]
 800564a:	b930      	cbnz	r0, 800565a <_svfiprintf_r+0x32>
 800564c:	230c      	movs	r3, #12
 800564e:	603b      	str	r3, [r7, #0]
 8005650:	f04f 30ff 	mov.w	r0, #4294967295
 8005654:	b01d      	add	sp, #116	@ 0x74
 8005656:	e8bd 8ff0 	ldmia.w	sp!, {r4, r5, r6, r7, r8, r9, sl, fp, pc}
 800565a:	2340      	movs	r3, #64	@ 0x40
 800565c:	616b      	str	r3, [r5, #20]
 800565e:	2300      	movs	r3, #0
 8005660:	9309      	str	r3, [sp, #36]	@ 0x24
 8005662:	2320      	movs	r3, #32
 8005664:	f88d 3029 	strb.w	r3, [sp, #41]	@ 0x29
 8005668:	f8cd 800c 	str.w	r8, [sp, #12]
 800566c:	2330      	movs	r3, #48	@ 0x30
 800566e:	f8df 819c 	ldr.w	r8, [pc, #412]	@ 800580c <_svfiprintf_r+0x1e4>
 8005672:	f88d 302a 	strb.w	r3, [sp, #42]	@ 0x2a
 8005676:	f04f 0901 	mov.w	r9, #1
 800567a:	4623      	mov	r3, r4
 800567c:	469a      	mov	sl, r3
 800567e:	f813 2b01 	ldrb.w	r2, [r3], #1
 8005682:	b10a      	cbz	r2, 8005688 <_svfiprintf_r+0x60>
 8005684:	2a25      	cmp	r2, #37	@ 0x25
 8005686:	d1f9      	bne.n	800567c <_svfiprintf_r+0x54>
 8005688:	ebba 0b04 	subs.w	fp, sl, r4
 800568c:	d00b      	beq.n	80056a6 <_svfiprintf_r+0x7e>
 800568e:	465b      	mov	r3, fp
 8005690:	4622      	mov	r2, r4
 8005692:	4629      	mov	r1, r5
 8005694:	4638      	mov	r0, r7
 8005696:	f7ff ff6b 	bl	8005570 <__ssputs_r>
 800569a:	3001      	adds	r0, #1
 800569c:	f000 80a7 	beq.w	80057ee <_svfiprintf_r+0x1c6>
 80056a0:	9a09      	ldr	r2, [sp, #36]	@ 0x24
 80056a2:	445a      	add	r2, fp
 80056a4:	9209      	str	r2, [sp, #36]	@ 0x24
 80056a6:	f89a 3000 	ldrb.w	r3, [sl]
 80056aa:	2b00      	cmp	r3, #0
 80056ac:	f000 809f 	beq.w	80057ee <_svfiprintf_r+0x1c6>
 80056b0:	2300      	movs	r3, #0
 80056b2:	f04f 32ff 	mov.w	r2, #4294967295
 80056b6:	e9cd 2305 	strd	r2, r3, [sp, #20]
 80056ba:	f10a 0a01 	add.w	sl, sl, #1
 80056be:	9304      	str	r3, [sp, #16]
 80056c0:	9307      	str	r3, [sp, #28]
 80056c2:	f88d 3053 	strb.w	r3, [sp, #83]	@ 0x53
 80056c6:	931a      	str	r3, [sp, #104]	@ 0x68
 80056c8:	4654      	mov	r4, sl
 80056ca:	2205      	movs	r2, #5
 80056cc:	f814 1b01 	ldrb.w	r1, [r4], #1
 80056d0:	484e      	ldr	r0, [pc, #312]	@ (800580c <_svfiprintf_r+0x1e4>)
 80056d2:	f7fa fd8d 	bl	80001f0 <memchr>
 80056d6:	9a04      	ldr	r2, [sp, #16]
 80056d8:	b9d8      	cbnz	r0, 8005712 <_svfiprintf_r+0xea>
 80056da:	06d0      	lsls	r0, r2, #27
 80056dc:	bf44      	itt	mi
 80056de:	2320      	movmi	r3, #32
 80056e0:	f88d 3053 	strbmi.w	r3, [sp, #83]	@ 0x53
 80056e4:	0711      	lsls	r1, r2, #28
 80056e6:	bf44      	itt	mi
 80056e8:	232b      	movmi	r3, #43	@ 0x2b
 80056ea:	f88d 3053 	strbmi.w	r3, [sp, #83]	@ 0x53
 80056ee:	f89a 3000 	ldrb.w	r3, [sl]
 80056f2:	2b2a      	cmp	r3, #42	@ 0x2a
 80056f4:	d015      	beq.n	8005722 <_svfiprintf_r+0xfa>
 80056f6:	9a07      	ldr	r2, [sp, #28]
 80056f8:	4654      	mov	r4, sl
 80056fa:	2000      	movs	r0, #0
 80056fc:	f04f 0c0a 	mov.w	ip, #10
 8005700:	4621      	mov	r1, r4
 8005702:	f811 3b01 	ldrb.w	r3, [r1], #1
 8005706:	3b30      	subs	r3, #48	@ 0x30
 8005708:	2b09      	cmp	r3, #9
 800570a:	d94b      	bls.n	80057a4 <_svfiprintf_r+0x17c>
 800570c:	b1b0      	cbz	r0, 800573c <_svfiprintf_r+0x114>
 800570e:	9207      	str	r2, [sp, #28]
 8005710:	e014      	b.n	800573c <_svfiprintf_r+0x114>
 8005712:	eba0 0308 	sub.w	r3, r0, r8
 8005716:	fa09 f303 	lsl.w	r3, r9, r3
 800571a:	4313      	orrs	r3, r2
 800571c:	9304      	str	r3, [sp, #16]
 800571e:	46a2      	mov	sl, r4
 8005720:	e7d2      	b.n	80056c8 <_svfiprintf_r+0xa0>
 8005722:	9b03      	ldr	r3, [sp, #12]
 8005724:	1d19      	adds	r1, r3, #4
 8005726:	681b      	ldr	r3, [r3, #0]
 8005728:	9103      	str	r1, [sp, #12]
 800572a:	2b00      	cmp	r3, #0
 800572c:	bfbb      	ittet	lt
 800572e:	425b      	neglt	r3, r3
 8005730:	f042 0202 	orrlt.w	r2, r2, #2
 8005734:	9307      	strge	r3, [sp, #28]
 8005736:	9307      	strlt	r3, [sp, #28]
 8005738:	bfb8      	it	lt
 800573a:	9204      	strlt	r2, [sp, #16]
 800573c:	7823      	ldrb	r3, [r4, #0]
 800573e:	2b2e      	cmp	r3, #46	@ 0x2e
 8005740:	d10a      	bne.n	8005758 <_svfiprintf_r+0x130>
 8005742:	7863      	ldrb	r3, [r4, #1]
 8005744:	2b2a      	cmp	r3, #42	@ 0x2a
 8005746:	d132      	bne.n	80057ae <_svfiprintf_r+0x186>
 8005748:	9b03      	ldr	r3, [sp, #12]
 800574a:	1d1a      	adds	r2, r3, #4
 800574c:	681b      	ldr	r3, [r3, #0]
 800574e:	9203      	str	r2, [sp, #12]
 8005750:	ea43 73e3 	orr.w	r3, r3, r3, asr #31
 8005754:	3402      	adds	r4, #2
 8005756:	9305      	str	r3, [sp, #20]
 8005758:	f8df a0c0 	ldr.w	sl, [pc, #192]	@ 800581c <_svfiprintf_r+0x1f4>
 800575c:	7821      	ldrb	r1, [r4, #0]
 800575e:	2203      	movs	r2, #3
 8005760:	4650      	mov	r0, sl
 8005762:	f7fa fd45 	bl	80001f0 <memchr>
 8005766:	b138      	cbz	r0, 8005778 <_svfiprintf_r+0x150>
 8005768:	9b04      	ldr	r3, [sp, #16]
 800576a:	eba0 000a 	sub.w	r0, r0, sl
 800576e:	2240      	movs	r2, #64	@ 0x40
 8005770:	4082      	lsls	r2, r0
 8005772:	4313      	orrs	r3, r2
 8005774:	3401      	adds	r4, #1
 8005776:	9304      	str	r3, [sp, #16]
 8005778:	f814 1b01 	ldrb.w	r1, [r4], #1
 800577c:	4824      	ldr	r0, [pc, #144]	@ (8005810 <_svfiprintf_r+0x1e8>)
 800577e:	f88d 1028 	strb.w	r1, [sp, #40]	@ 0x28
 8005782:	2206      	movs	r2, #6
 8005784:	f7fa fd34 	bl	80001f0 <memchr>
 8005788:	2800      	cmp	r0, #0
 800578a:	d036      	beq.n	80057fa <_svfiprintf_r+0x1d2>
 800578c:	4b21      	ldr	r3, [pc, #132]	@ (8005814 <_svfiprintf_r+0x1ec>)
 800578e:	bb1b      	cbnz	r3, 80057d8 <_svfiprintf_r+0x1b0>
 8005790:	9b03      	ldr	r3, [sp, #12]
 8005792:	3307      	adds	r3, #7
 8005794:	f023 0307 	bic.w	r3, r3, #7
 8005798:	3308      	adds	r3, #8
 800579a:	9303      	str	r3, [sp, #12]
 800579c:	9b09      	ldr	r3, [sp, #36]	@ 0x24
 800579e:	4433      	add	r3, r6
 80057a0:	9309      	str	r3, [sp, #36]	@ 0x24
 80057a2:	e76a      	b.n	800567a <_svfiprintf_r+0x52>
 80057a4:	fb0c 3202 	mla	r2, ip, r2, r3
 80057a8:	460c      	mov	r4, r1
 80057aa:	2001      	movs	r0, #1
 80057ac:	e7a8      	b.n	8005700 <_svfiprintf_r+0xd8>
 80057ae:	2300      	movs	r3, #0
 80057b0:	3401      	adds	r4, #1
 80057b2:	9305      	str	r3, [sp, #20]
 80057b4:	4619      	mov	r1, r3
 80057b6:	f04f 0c0a 	mov.w	ip, #10
 80057ba:	4620      	mov	r0, r4
 80057bc:	f810 2b01 	ldrb.w	r2, [r0], #1
 80057c0:	3a30      	subs	r2, #48	@ 0x30
 80057c2:	2a09      	cmp	r2, #9
 80057c4:	d903      	bls.n	80057ce <_svfiprintf_r+0x1a6>
 80057c6:	2b00      	cmp	r3, #0
 80057c8:	d0c6      	beq.n	8005758 <_svfiprintf_r+0x130>
 80057ca:	9105      	str	r1, [sp, #20]
 80057cc:	e7c4      	b.n	8005758 <_svfiprintf_r+0x130>
 80057ce:	fb0c 2101 	mla	r1, ip, r1, r2
 80057d2:	4604      	mov	r4, r0
 80057d4:	2301      	movs	r3, #1
 80057d6:	e7f0      	b.n	80057ba <_svfiprintf_r+0x192>
 80057d8:	ab03      	add	r3, sp, #12
 80057da:	9300      	str	r3, [sp, #0]
 80057dc:	462a      	mov	r2, r5
 80057de:	4b0e      	ldr	r3, [pc, #56]	@ (8005818 <_svfiprintf_r+0x1f0>)
 80057e0:	a904      	add	r1, sp, #16
 80057e2:	4638      	mov	r0, r7
 80057e4:	f3af 8000 	nop.w
 80057e8:	1c42      	adds	r2, r0, #1
 80057ea:	4606      	mov	r6, r0
 80057ec:	d1d6      	bne.n	800579c <_svfiprintf_r+0x174>
 80057ee:	89ab      	ldrh	r3, [r5, #12]
 80057f0:	065b      	lsls	r3, r3, #25
 80057f2:	f53f af2d 	bmi.w	8005650 <_svfiprintf_r+0x28>
 80057f6:	9809      	ldr	r0, [sp, #36]	@ 0x24
 80057f8:	e72c      	b.n	8005654 <_svfiprintf_r+0x2c>
 80057fa:	ab03      	add	r3, sp, #12
 80057fc:	9300      	str	r3, [sp, #0]
 80057fe:	462a      	mov	r2, r5
 8005800:	4b05      	ldr	r3, [pc, #20]	@ (8005818 <_svfiprintf_r+0x1f0>)
 8005802:	a904      	add	r1, sp, #16
 8005804:	4638      	mov	r0, r7
 8005806:	f000 f879 	bl	80058fc <_printf_i>
 800580a:	e7ed      	b.n	80057e8 <_svfiprintf_r+0x1c0>
 800580c:	08006166 	.word	0x08006166
 8005810:	08006170 	.word	0x08006170
 8005814:	00000000 	.word	0x00000000
 8005818:	08005571 	.word	0x08005571
 800581c:	0800616c 	.word	0x0800616c

08005820 <_printf_common>:
 8005820:	e92d 47f0 	stmdb	sp!, {r4, r5, r6, r7, r8, r9, sl, lr}
 8005824:	4616      	mov	r6, r2
 8005826:	4698      	mov	r8, r3
 8005828:	688a      	ldr	r2, [r1, #8]
 800582a:	690b      	ldr	r3, [r1, #16]
 800582c:	f8dd 9020 	ldr.w	r9, [sp, #32]
 8005830:	4293      	cmp	r3, r2
 8005832:	bfb8      	it	lt
 8005834:	4613      	movlt	r3, r2
 8005836:	6033      	str	r3, [r6, #0]
 8005838:	f891 2043 	ldrb.w	r2, [r1, #67]	@ 0x43
 800583c:	4607      	mov	r7, r0
 800583e:	460c      	mov	r4, r1
 8005840:	b10a      	cbz	r2, 8005846 <_printf_common+0x26>
 8005842:	3301      	adds	r3, #1
 8005844:	6033      	str	r3, [r6, #0]
 8005846:	6823      	ldr	r3, [r4, #0]
 8005848:	0699      	lsls	r1, r3, #26
 800584a:	bf42      	ittt	mi
 800584c:	6833      	ldrmi	r3, [r6, #0]
 800584e:	3302      	addmi	r3, #2
 8005850:	6033      	strmi	r3, [r6, #0]
 8005852:	6825      	ldr	r5, [r4, #0]
 8005854:	f015 0506 	ands.w	r5, r5, #6
 8005858:	d106      	bne.n	8005868 <_printf_common+0x48>
 800585a:	f104 0a19 	add.w	sl, r4, #25
 800585e:	68e3      	ldr	r3, [r4, #12]
 8005860:	6832      	ldr	r2, [r6, #0]
 8005862:	1a9b      	subs	r3, r3, r2
 8005864:	42ab      	cmp	r3, r5
 8005866:	dc26      	bgt.n	80058b6 <_printf_common+0x96>
 8005868:	f894 3043 	ldrb.w	r3, [r4, #67]	@ 0x43
 800586c:	6822      	ldr	r2, [r4, #0]
 800586e:	3b00      	subs	r3, #0
 8005870:	bf18      	it	ne
 8005872:	2301      	movne	r3, #1
 8005874:	0692      	lsls	r2, r2, #26
 8005876:	d42b      	bmi.n	80058d0 <_printf_common+0xb0>
 8005878:	f104 0243 	add.w	r2, r4, #67	@ 0x43
 800587c:	4641      	mov	r1, r8
 800587e:	4638      	mov	r0, r7
 8005880:	47c8      	blx	r9
 8005882:	3001      	adds	r0, #1
 8005884:	d01e      	beq.n	80058c4 <_printf_common+0xa4>
 8005886:	6823      	ldr	r3, [r4, #0]
 8005888:	6922      	ldr	r2, [r4, #16]
 800588a:	f003 0306 	and.w	r3, r3, #6
 800588e:	2b04      	cmp	r3, #4
 8005890:	bf02      	ittt	eq
 8005892:	68e5      	ldreq	r5, [r4, #12]
 8005894:	6833      	ldreq	r3, [r6, #0]
 8005896:	1aed      	subeq	r5, r5, r3
 8005898:	68a3      	ldr	r3, [r4, #8]
 800589a:	bf0c      	ite	eq
 800589c:	ea25 75e5 	biceq.w	r5, r5, r5, asr #31
 80058a0:	2500      	movne	r5, #0
 80058a2:	4293      	cmp	r3, r2
 80058a4:	bfc4      	itt	gt
 80058a6:	1a9b      	subgt	r3, r3, r2
 80058a8:	18ed      	addgt	r5, r5, r3
 80058aa:	2600      	movs	r6, #0
 80058ac:	341a      	adds	r4, #26
 80058ae:	42b5      	cmp	r5, r6
 80058b0:	d11a      	bne.n	80058e8 <_printf_common+0xc8>
 80058b2:	2000      	movs	r0, #0
 80058b4:	e008      	b.n	80058c8 <_printf_common+0xa8>
 80058b6:	2301      	movs	r3, #1
 80058b8:	4652      	mov	r2, sl
 80058ba:	4641      	mov	r1, r8
 80058bc:	4638      	mov	r0, r7
 80058be:	47c8      	blx	r9
 80058c0:	3001      	adds	r0, #1
 80058c2:	d103      	bne.n	80058cc <_printf_common+0xac>
 80058c4:	f04f 30ff 	mov.w	r0, #4294967295
 80058c8:	e8bd 87f0 	ldmia.w	sp!, {r4, r5, r6, r7, r8, r9, sl, pc}
 80058cc:	3501      	adds	r5, #1
 80058ce:	e7c6      	b.n	800585e <_printf_common+0x3e>
 80058d0:	18e1      	adds	r1, r4, r3
 80058d2:	1c5a      	adds	r2, r3, #1
 80058d4:	2030      	movs	r0, #48	@ 0x30
 80058d6:	f881 0043 	strb.w	r0, [r1, #67]	@ 0x43
 80058da:	4422      	add	r2, r4
 80058dc:	f894 1045 	ldrb.w	r1, [r4, #69]	@ 0x45
 80058e0:	f882 1043 	strb.w	r1, [r2, #67]	@ 0x43
 80058e4:	3302      	adds	r3, #2
 80058e6:	e7c7      	b.n	8005878 <_printf_common+0x58>
 80058e8:	2301      	movs	r3, #1
 80058ea:	4622      	mov	r2, r4
 80058ec:	4641      	mov	r1, r8
 80058ee:	4638      	mov	r0, r7
 80058f0:	47c8      	blx	r9
 80058f2:	3001      	adds	r0, #1
 80058f4:	d0e6      	beq.n	80058c4 <_printf_common+0xa4>
 80058f6:	3601      	adds	r6, #1
 80058f8:	e7d9      	b.n	80058ae <_printf_common+0x8e>
	...

080058fc <_printf_i>:
 80058fc:	e92d 47ff 	stmdb	sp!, {r0, r1, r2, r3, r4, r5, r6, r7, r8, r9, sl, lr}
 8005900:	7e0f      	ldrb	r7, [r1, #24]
 8005902:	9e0c      	ldr	r6, [sp, #48]	@ 0x30
 8005904:	2f78      	cmp	r7, #120	@ 0x78
 8005906:	4691      	mov	r9, r2
 8005908:	4680      	mov	r8, r0
 800590a:	460c      	mov	r4, r1
 800590c:	469a      	mov	sl, r3
 800590e:	f101 0243 	add.w	r2, r1, #67	@ 0x43
 8005912:	d807      	bhi.n	8005924 <_printf_i+0x28>
 8005914:	2f62      	cmp	r7, #98	@ 0x62
 8005916:	d80a      	bhi.n	800592e <_printf_i+0x32>
 8005918:	2f00      	cmp	r7, #0
 800591a:	f000 80d2 	beq.w	8005ac2 <_printf_i+0x1c6>
 800591e:	2f58      	cmp	r7, #88	@ 0x58
 8005920:	f000 80b9 	beq.w	8005a96 <_printf_i+0x19a>
 8005924:	f104 0642 	add.w	r6, r4, #66	@ 0x42
 8005928:	f884 7042 	strb.w	r7, [r4, #66]	@ 0x42
 800592c:	e03a      	b.n	80059a4 <_printf_i+0xa8>
 800592e:	f1a7 0363 	sub.w	r3, r7, #99	@ 0x63
 8005932:	2b15      	cmp	r3, #21
 8005934:	d8f6      	bhi.n	8005924 <_printf_i+0x28>
 8005936:	a101      	add	r1, pc, #4	@ (adr r1, 800593c <_printf_i+0x40>)
 8005938:	f851 f023 	ldr.w	pc, [r1, r3, lsl #2]
 800593c:	08005995 	.word	0x08005995
 8005940:	080059a9 	.word	0x080059a9
 8005944:	08005925 	.word	0x08005925
 8005948:	08005925 	.word	0x08005925
 800594c:	08005925 	.word	0x08005925
 8005950:	08005925 	.word	0x08005925
 8005954:	080059a9 	.word	0x080059a9
 8005958:	08005925 	.word	0x08005925
 800595c:	08005925 	.word	0x08005925
 8005960:	08005925 	.word	0x08005925
 8005964:	08005925 	.word	0x08005925
 8005968:	08005aa9 	.word	0x08005aa9
 800596c:	080059d3 	.word	0x080059d3
 8005970:	08005a63 	.word	0x08005a63
 8005974:	08005925 	.word	0x08005925
 8005978:	08005925 	.word	0x08005925
 800597c:	08005acb 	.word	0x08005acb
 8005980:	08005925 	.word	0x08005925
 8005984:	080059d3 	.word	0x080059d3
 8005988:	08005925 	.word	0x08005925
 800598c:	08005925 	.word	0x08005925
 8005990:	08005a6b 	.word	0x08005a6b
 8005994:	6833      	ldr	r3, [r6, #0]
 8005996:	1d1a      	adds	r2, r3, #4
 8005998:	681b      	ldr	r3, [r3, #0]
 800599a:	6032      	str	r2, [r6, #0]
 800599c:	f104 0642 	add.w	r6, r4, #66	@ 0x42
 80059a0:	f884 3042 	strb.w	r3, [r4, #66]	@ 0x42
 80059a4:	2301      	movs	r3, #1
 80059a6:	e09d      	b.n	8005ae4 <_printf_i+0x1e8>
 80059a8:	6833      	ldr	r3, [r6, #0]
 80059aa:	6820      	ldr	r0, [r4, #0]
 80059ac:	1d19      	adds	r1, r3, #4
 80059ae:	6031      	str	r1, [r6, #0]
 80059b0:	0606      	lsls	r6, r0, #24
 80059b2:	d501      	bpl.n	80059b8 <_printf_i+0xbc>
 80059b4:	681d      	ldr	r5, [r3, #0]
 80059b6:	e003      	b.n	80059c0 <_printf_i+0xc4>
 80059b8:	0645      	lsls	r5, r0, #25
 80059ba:	d5fb      	bpl.n	80059b4 <_printf_i+0xb8>
 80059bc:	f9b3 5000 	ldrsh.w	r5, [r3]
 80059c0:	2d00      	cmp	r5, #0
 80059c2:	da03      	bge.n	80059cc <_printf_i+0xd0>
 80059c4:	232d      	movs	r3, #45	@ 0x2d
 80059c6:	426d      	negs	r5, r5
 80059c8:	f884 3043 	strb.w	r3, [r4, #67]	@ 0x43
 80059cc:	4859      	ldr	r0, [pc, #356]	@ (8005b34 <_printf_i+0x238>)
 80059ce:	230a      	movs	r3, #10
 80059d0:	e011      	b.n	80059f6 <_printf_i+0xfa>
 80059d2:	6821      	ldr	r1, [r4, #0]
 80059d4:	6833      	ldr	r3, [r6, #0]
 80059d6:	0608      	lsls	r0, r1, #24
 80059d8:	f853 5b04 	ldr.w	r5, [r3], #4
 80059dc:	d402      	bmi.n	80059e4 <_printf_i+0xe8>
 80059de:	0649      	lsls	r1, r1, #25
 80059e0:	bf48      	it	mi
 80059e2:	b2ad      	uxthmi	r5, r5
 80059e4:	2f6f      	cmp	r7, #111	@ 0x6f
 80059e6:	4853      	ldr	r0, [pc, #332]	@ (8005b34 <_printf_i+0x238>)
 80059e8:	6033      	str	r3, [r6, #0]
 80059ea:	bf14      	ite	ne
 80059ec:	230a      	movne	r3, #10
 80059ee:	2308      	moveq	r3, #8
 80059f0:	2100      	movs	r1, #0
 80059f2:	f884 1043 	strb.w	r1, [r4, #67]	@ 0x43
 80059f6:	6866      	ldr	r6, [r4, #4]
 80059f8:	60a6      	str	r6, [r4, #8]
 80059fa:	2e00      	cmp	r6, #0
 80059fc:	bfa2      	ittt	ge
 80059fe:	6821      	ldrge	r1, [r4, #0]
 8005a00:	f021 0104 	bicge.w	r1, r1, #4
 8005a04:	6021      	strge	r1, [r4, #0]
 8005a06:	b90d      	cbnz	r5, 8005a0c <_printf_i+0x110>
 8005a08:	2e00      	cmp	r6, #0
 8005a0a:	d04b      	beq.n	8005aa4 <_printf_i+0x1a8>
 8005a0c:	4616      	mov	r6, r2
 8005a0e:	fbb5 f1f3 	udiv	r1, r5, r3
 8005a12:	fb03 5711 	mls	r7, r3, r1, r5
 8005a16:	5dc7      	ldrb	r7, [r0, r7]
 8005a18:	f806 7d01 	strb.w	r7, [r6, #-1]!
 8005a1c:	462f      	mov	r7, r5
 8005a1e:	42bb      	cmp	r3, r7
 8005a20:	460d      	mov	r5, r1
 8005a22:	d9f4      	bls.n	8005a0e <_printf_i+0x112>
 8005a24:	2b08      	cmp	r3, #8
 8005a26:	d10b      	bne.n	8005a40 <_printf_i+0x144>
 8005a28:	6823      	ldr	r3, [r4, #0]
 8005a2a:	07df      	lsls	r7, r3, #31
 8005a2c:	d508      	bpl.n	8005a40 <_printf_i+0x144>
 8005a2e:	6923      	ldr	r3, [r4, #16]
 8005a30:	6861      	ldr	r1, [r4, #4]
 8005a32:	4299      	cmp	r1, r3
 8005a34:	bfde      	ittt	le
 8005a36:	2330      	movle	r3, #48	@ 0x30
 8005a38:	f806 3c01 	strble.w	r3, [r6, #-1]
 8005a3c:	f106 36ff 	addle.w	r6, r6, #4294967295
 8005a40:	1b92      	subs	r2, r2, r6
 8005a42:	6122      	str	r2, [r4, #16]
 8005a44:	f8cd a000 	str.w	sl, [sp]
 8005a48:	464b      	mov	r3, r9
 8005a4a:	aa03      	add	r2, sp, #12
 8005a4c:	4621      	mov	r1, r4
 8005a4e:	4640      	mov	r0, r8
 8005a50:	f7ff fee6 	bl	8005820 <_printf_common>
 8005a54:	3001      	adds	r0, #1
 8005a56:	d14a      	bne.n	8005aee <_printf_i+0x1f2>
 8005a58:	f04f 30ff 	mov.w	r0, #4294967295
 8005a5c:	b004      	add	sp, #16
 8005a5e:	e8bd 87f0 	ldmia.w	sp!, {r4, r5, r6, r7, r8, r9, sl, pc}
 8005a62:	6823      	ldr	r3, [r4, #0]
 8005a64:	f043 0320 	orr.w	r3, r3, #32
 8005a68:	6023      	str	r3, [r4, #0]
 8005a6a:	4833      	ldr	r0, [pc, #204]	@ (8005b38 <_printf_i+0x23c>)
 8005a6c:	2778      	movs	r7, #120	@ 0x78
 8005a6e:	f884 7045 	strb.w	r7, [r4, #69]	@ 0x45
 8005a72:	6823      	ldr	r3, [r4, #0]
 8005a74:	6831      	ldr	r1, [r6, #0]
 8005a76:	061f      	lsls	r7, r3, #24
 8005a78:	f851 5b04 	ldr.w	r5, [r1], #4
 8005a7c:	d402      	bmi.n	8005a84 <_printf_i+0x188>
 8005a7e:	065f      	lsls	r7, r3, #25
 8005a80:	bf48      	it	mi
 8005a82:	b2ad      	uxthmi	r5, r5
 8005a84:	6031      	str	r1, [r6, #0]
 8005a86:	07d9      	lsls	r1, r3, #31
 8005a88:	bf44      	itt	mi
 8005a8a:	f043 0320 	orrmi.w	r3, r3, #32
 8005a8e:	6023      	strmi	r3, [r4, #0]
 8005a90:	b11d      	cbz	r5, 8005a9a <_printf_i+0x19e>
 8005a92:	2310      	movs	r3, #16
 8005a94:	e7ac      	b.n	80059f0 <_printf_i+0xf4>
 8005a96:	4827      	ldr	r0, [pc, #156]	@ (8005b34 <_printf_i+0x238>)
 8005a98:	e7e9      	b.n	8005a6e <_printf_i+0x172>
 8005a9a:	6823      	ldr	r3, [r4, #0]
 8005a9c:	f023 0320 	bic.w	r3, r3, #32
 8005aa0:	6023      	str	r3, [r4, #0]
 8005aa2:	e7f6      	b.n	8005a92 <_printf_i+0x196>
 8005aa4:	4616      	mov	r6, r2
 8005aa6:	e7bd      	b.n	8005a24 <_printf_i+0x128>
 8005aa8:	6833      	ldr	r3, [r6, #0]
 8005aaa:	6825      	ldr	r5, [r4, #0]
 8005aac:	6961      	ldr	r1, [r4, #20]
 8005aae:	1d18      	adds	r0, r3, #4
 8005ab0:	6030      	str	r0, [r6, #0]
 8005ab2:	062e      	lsls	r6, r5, #24
 8005ab4:	681b      	ldr	r3, [r3, #0]
 8005ab6:	d501      	bpl.n	8005abc <_printf_i+0x1c0>
 8005ab8:	6019      	str	r1, [r3, #0]
 8005aba:	e002      	b.n	8005ac2 <_printf_i+0x1c6>
 8005abc:	0668      	lsls	r0, r5, #25
 8005abe:	d5fb      	bpl.n	8005ab8 <_printf_i+0x1bc>
 8005ac0:	8019      	strh	r1, [r3, #0]
 8005ac2:	2300      	movs	r3, #0
 8005ac4:	6123      	str	r3, [r4, #16]
 8005ac6:	4616      	mov	r6, r2
 8005ac8:	e7bc      	b.n	8005a44 <_printf_i+0x148>
 8005aca:	6833      	ldr	r3, [r6, #0]
 8005acc:	1d1a      	adds	r2, r3, #4
 8005ace:	6032      	str	r2, [r6, #0]
 8005ad0:	681e      	ldr	r6, [r3, #0]
 8005ad2:	6862      	ldr	r2, [r4, #4]
 8005ad4:	2100      	movs	r1, #0
 8005ad6:	4630      	mov	r0, r6
 8005ad8:	f7fa fb8a 	bl	80001f0 <memchr>
 8005adc:	b108      	cbz	r0, 8005ae2 <_printf_i+0x1e6>
 8005ade:	1b80      	subs	r0, r0, r6
 8005ae0:	6060      	str	r0, [r4, #4]
 8005ae2:	6863      	ldr	r3, [r4, #4]
 8005ae4:	6123      	str	r3, [r4, #16]
 8005ae6:	2300      	movs	r3, #0
 8005ae8:	f884 3043 	strb.w	r3, [r4, #67]	@ 0x43
 8005aec:	e7aa      	b.n	8005a44 <_printf_i+0x148>
 8005aee:	6923      	ldr	r3, [r4, #16]
 8005af0:	4632      	mov	r2, r6
 8005af2:	4649      	mov	r1, r9
 8005af4:	4640      	mov	r0, r8
 8005af6:	47d0      	blx	sl
 8005af8:	3001      	adds	r0, #1
 8005afa:	d0ad      	beq.n	8005a58 <_printf_i+0x15c>
 8005afc:	6823      	ldr	r3, [r4, #0]
 8005afe:	079b      	lsls	r3, r3, #30
 8005b00:	d413      	bmi.n	8005b2a <_printf_i+0x22e>
 8005b02:	68e0      	ldr	r0, [r4, #12]
 8005b04:	9b03      	ldr	r3, [sp, #12]
 8005b06:	4298      	cmp	r0, r3
 8005b08:	bfb8      	it	lt
 8005b0a:	4618      	movlt	r0, r3
 8005b0c:	e7a6      	b.n	8005a5c <_printf_i+0x160>
 8005b0e:	2301      	movs	r3, #1
 8005b10:	4632      	mov	r2, r6
 8005b12:	4649      	mov	r1, r9
 8005b14:	4640      	mov	r0, r8
 8005b16:	47d0      	blx	sl
 8005b18:	3001      	adds	r0, #1
 8005b1a:	d09d      	beq.n	8005a58 <_printf_i+0x15c>
 8005b1c:	3501      	adds	r5, #1
 8005b1e:	68e3      	ldr	r3, [r4, #12]
 8005b20:	9903      	ldr	r1, [sp, #12]
 8005b22:	1a5b      	subs	r3, r3, r1
 8005b24:	42ab      	cmp	r3, r5
 8005b26:	dcf2      	bgt.n	8005b0e <_printf_i+0x212>
 8005b28:	e7eb      	b.n	8005b02 <_printf_i+0x206>
 8005b2a:	2500      	movs	r5, #0
 8005b2c:	f104 0619 	add.w	r6, r4, #25
 8005b30:	e7f5      	b.n	8005b1e <_printf_i+0x222>
 8005b32:	bf00      	nop
 8005b34:	08006177 	.word	0x08006177
 8005b38:	08006188 	.word	0x08006188

08005b3c <memmove>:
 8005b3c:	4288      	cmp	r0, r1
 8005b3e:	b510      	push	{r4, lr}
 8005b40:	eb01 0402 	add.w	r4, r1, r2
 8005b44:	d902      	bls.n	8005b4c <memmove+0x10>
 8005b46:	4284      	cmp	r4, r0
 8005b48:	4623      	mov	r3, r4
 8005b4a:	d807      	bhi.n	8005b5c <memmove+0x20>
 8005b4c:	1e43      	subs	r3, r0, #1
 8005b4e:	42a1      	cmp	r1, r4
 8005b50:	d008      	beq.n	8005b64 <memmove+0x28>
 8005b52:	f811 2b01 	ldrb.w	r2, [r1], #1
 8005b56:	f803 2f01 	strb.w	r2, [r3, #1]!
 8005b5a:	e7f8      	b.n	8005b4e <memmove+0x12>
 8005b5c:	4402      	add	r2, r0
 8005b5e:	4601      	mov	r1, r0
 8005b60:	428a      	cmp	r2, r1
 8005b62:	d100      	bne.n	8005b66 <memmove+0x2a>
 8005b64:	bd10      	pop	{r4, pc}
 8005b66:	f813 4d01 	ldrb.w	r4, [r3, #-1]!
 8005b6a:	f802 4d01 	strb.w	r4, [r2, #-1]!
 8005b6e:	e7f7      	b.n	8005b60 <memmove+0x24>

08005b70 <_sbrk_r>:
 8005b70:	b538      	push	{r3, r4, r5, lr}
 8005b72:	4d06      	ldr	r5, [pc, #24]	@ (8005b8c <_sbrk_r+0x1c>)
 8005b74:	2300      	movs	r3, #0
 8005b76:	4604      	mov	r4, r0
 8005b78:	4608      	mov	r0, r1
 8005b7a:	602b      	str	r3, [r5, #0]
 8005b7c:	f7fb ff3a 	bl	80019f4 <_sbrk>
 8005b80:	1c43      	adds	r3, r0, #1
 8005b82:	d102      	bne.n	8005b8a <_sbrk_r+0x1a>
 8005b84:	682b      	ldr	r3, [r5, #0]
 8005b86:	b103      	cbz	r3, 8005b8a <_sbrk_r+0x1a>
 8005b88:	6023      	str	r3, [r4, #0]
 8005b8a:	bd38      	pop	{r3, r4, r5, pc}
 8005b8c:	200026f8 	.word	0x200026f8

08005b90 <memcpy>:
 8005b90:	440a      	add	r2, r1
 8005b92:	4291      	cmp	r1, r2
 8005b94:	f100 33ff 	add.w	r3, r0, #4294967295
 8005b98:	d100      	bne.n	8005b9c <memcpy+0xc>
 8005b9a:	4770      	bx	lr
 8005b9c:	b510      	push	{r4, lr}
 8005b9e:	f811 4b01 	ldrb.w	r4, [r1], #1
 8005ba2:	f803 4f01 	strb.w	r4, [r3, #1]!
 8005ba6:	4291      	cmp	r1, r2
 8005ba8:	d1f9      	bne.n	8005b9e <memcpy+0xe>
 8005baa:	bd10      	pop	{r4, pc}

08005bac <_realloc_r>:
 8005bac:	e92d 41f0 	stmdb	sp!, {r4, r5, r6, r7, r8, lr}
 8005bb0:	4680      	mov	r8, r0
 8005bb2:	4615      	mov	r5, r2
 8005bb4:	460c      	mov	r4, r1
 8005bb6:	b921      	cbnz	r1, 8005bc2 <_realloc_r+0x16>
 8005bb8:	e8bd 41f0 	ldmia.w	sp!, {r4, r5, r6, r7, r8, lr}
 8005bbc:	4611      	mov	r1, r2
 8005bbe:	f7ff bc4b 	b.w	8005458 <_malloc_r>
 8005bc2:	b92a      	cbnz	r2, 8005bd0 <_realloc_r+0x24>
 8005bc4:	f7ff fbdc 	bl	8005380 <_free_r>
 8005bc8:	2400      	movs	r4, #0
 8005bca:	4620      	mov	r0, r4
 8005bcc:	e8bd 81f0 	ldmia.w	sp!, {r4, r5, r6, r7, r8, pc}
 8005bd0:	f000 f81a 	bl	8005c08 <_malloc_usable_size_r>
 8005bd4:	4285      	cmp	r5, r0
 8005bd6:	4606      	mov	r6, r0
 8005bd8:	d802      	bhi.n	8005be0 <_realloc_r+0x34>
 8005bda:	ebb5 0f50 	cmp.w	r5, r0, lsr #1
 8005bde:	d8f4      	bhi.n	8005bca <_realloc_r+0x1e>
 8005be0:	4629      	mov	r1, r5
 8005be2:	4640      	mov	r0, r8
 8005be4:	f7ff fc38 	bl	8005458 <_malloc_r>
 8005be8:	4607      	mov	r7, r0
 8005bea:	2800      	cmp	r0, #0
 8005bec:	d0ec      	beq.n	8005bc8 <_realloc_r+0x1c>
 8005bee:	42b5      	cmp	r5, r6
 8005bf0:	462a      	mov	r2, r5
 8005bf2:	4621      	mov	r1, r4
 8005bf4:	bf28      	it	cs
 8005bf6:	4632      	movcs	r2, r6
 8005bf8:	f7ff ffca 	bl	8005b90 <memcpy>
 8005bfc:	4621      	mov	r1, r4
 8005bfe:	4640      	mov	r0, r8
 8005c00:	f7ff fbbe 	bl	8005380 <_free_r>
 8005c04:	463c      	mov	r4, r7
 8005c06:	e7e0      	b.n	8005bca <_realloc_r+0x1e>

08005c08 <_malloc_usable_size_r>:
 8005c08:	f851 3c04 	ldr.w	r3, [r1, #-4]
 8005c0c:	1f18      	subs	r0, r3, #4
 8005c0e:	2b00      	cmp	r3, #0
 8005c10:	bfbc      	itt	lt
 8005c12:	580b      	ldrlt	r3, [r1, r0]
 8005c14:	18c0      	addlt	r0, r0, r3
 8005c16:	4770      	bx	lr

08005c18 <_init>:
 8005c18:	b5f8      	push	{r3, r4, r5, r6, r7, lr}
 8005c1a:	bf00      	nop
 8005c1c:	bcf8      	pop	{r3, r4, r5, r6, r7}
 8005c1e:	bc08      	pop	{r3}
 8005c20:	469e      	mov	lr, r3
 8005c22:	4770      	bx	lr

08005c24 <_fini>:
 8005c24:	b5f8      	push	{r3, r4, r5, r6, r7, lr}
 8005c26:	bf00      	nop
 8005c28:	bcf8      	pop	{r3, r4, r5, r6, r7}
 8005c2a:	bc08      	pop	{r3}
 8005c2c:	469e      	mov	lr, r3
 8005c2e:	4770      	bx	lr
